
 Start Length Name Class
 0001:00000000 00000000CH _TEXT                  CODE


Detailed map of segments
 0001:00000A70 0000000C C=CODE    S=_TEXT    G=(none)   M=editor.cpp ACBP=A9
 0001:00001800 00000634 C=CODE    S=_TEXT    G=(none)   M=mxshortcut.pas ACBP=A9
 0001:000022A0 00000584 C=CODE    S=_TEXT    G=(none)   M=renderwindow.pas ACBP=A9
 0001:00003AC4 00002AE8 C=CODE    S=_TEXT    G=(none)   M=multi_edit.pas ACBP=A9
 0001:000066C4 000001C8 C=CODE    S=_TEXT    G=(none)   M=multi_color.pas ACBP=A9
 0001:00006A1C 000000AC C=CODE    S=_TEXT    G=(none)   M=multi_check.pas ACBP=A9
 0001:000070F4 000006E8 C=CODE    S=_TEXT    G=(none)   M=gradient.pas ACBP=A9
 0001:00008280 000021DC C=CODE    S=_TEXT    G=(none)   M=ExtBtn.pas ACBP=A9
 0001:0000D790 00006E11 C=CODE    S=_TEXT    G=(none)   M=MXCtrls.pas ACBP=A9
 0001:00014C8C 0000277D C=CODE    S=_TEXT    G=(none)   M=mxMenus.pas ACBP=A9
 0001:000191A0 0000226C C=CODE    S=_TEXT    G=(none)   M=mxPlacemnt.pas ACBP=A9
 0001:0001B40C 00001EC4 C=CODE    S=_TEXT    G=(none)   M=mxAppUtils.pas ACBP=A9
 0001:0001D2D0 000002E0 C=CODE    S=_TEXT    G=(none)   M=mxMaxMin.pas ACBP=A9
 0001:0001D708 000038BC C=CODE    S=_TEXT    G=(none)   M=mxVclUtils.pas ACBP=A9
 0001:00020FF4 00000068 C=CODE    S=_TEXT    G=(none)   M=mxConst.pas ACBP=A9
 0001:0002105C 000019A0 C=CODE    S=_TEXT    G=(none)   M=mxStrUtils.pas ACBP=A9
 0001:000229FC 00000D40 C=CODE    S=_TEXT    G=(none)   M=mxClipIcon.pas ACBP=A9
 0001:0002373C 00000868 C=CODE    S=_TEXT    G=(none)   M=mxBoxProcs.pas ACBP=A9
 0001:00023FD4 00000008 C=CODE    S=_TEXT    G=(none)   M=MXLConst.pas ACBP=A9
 0001:000241D4 00002410 C=CODE    S=_TEXT    G=(none)   M=mxProps.pas ACBP=A9
 0001:00026A04 00000A99 C=CODE    S=_TEXT    G=(none)   M=mxHook.pas ACBP=A9
 0001:00027750 0000202C C=CODE    S=_TEXT    G=(none)   M=mxFileUtil.pas ACBP=A9
 0001:000297AC 00000008 C=CODE    S=_TEXT    G=(none)   M=mxCConst.pas ACBP=A9
 0001:0002B9D0 00003FD0 C=CODE    S=_TEXT    G=(none)   M=mxFileCtrl.pas ACBP=A9
 0001:0002FA3C 000013C8 C=CODE    S=_TEXT    G=(none)   M=mxDateUtil.pas ACBP=A9

  Address         Publics by Value

 0001:00000502       Sysinit._GetTls
 0001:00000558       Windows.MakeLong
 0001:00000564       Windows.HiWord
 0001:00000568       Windows.UnlockResource
 0001:0000056C       Windows.GlobalAllocPtr
 0001:0000057C       Windows.GlobalReAllocPtr
 0001:00000598       Windows.GlobalFreePtr
 0001:000005AC       Windows.RGB
 0001:000005C8       Windows.GetRValue
 0001:000005CC       Windows.GetGValue
 0001:000005D0       Windows.GetBValue
 0001:000005D4       Windows.SmallPointToPoint
 0001:000005E8       Windows.PointToSmallPoint
 0001:00000600       Windows.MakeLParam
 0001:00000608       Windows.CreateWindow
 0001:0000063C       Windows.GetWindowTask
 0001:0000064C       Windows.Finalization
 0001:0000067C       Windows.initialization
 0001:00000684       Messages.Finalization
 0001:000006B4       Messages.initialization
 0001:000006BC       Commctrl.Finalization
 0001:000006EC       Commctrl.initialization
 0001:000006F4       Shellapi.Finalization
 0001:00000724       Shellapi.initialization
 0001:0000072C       Regstr.Finalization
 0001:0000075C       Regstr.initialization
 0001:00000764       Wininet.Finalization
 0001:00000794       Wininet.initialization
 0001:0000079C       Urlmon.Finalization
 0001:000007CC       Urlmon.initialization
 0001:000007D4       Shlobj.Finalization
 0001:00000804       Shlobj.initialization
 0001:0000080C       Commdlg.Finalization
 0001:0000083C       Commdlg.initialization
 0001:00000844       Dlgs.Finalization
 0001:00000874       Dlgs.initialization
 0001:0000087C       Imm.Finalization
 0001:000008AC       Imm.initialization
 0001:000008B4       Richedit.Finalization
 0001:000008E4       Richedit.initialization
 0001:000008EC       Winspool.Finalization
 0001:0000091C       Winspool.initialization
 0001:00000924       SysInit._16395
 0001:00000930       SysInit._16396
 0001:00000954       Sysinit.VclInit
 0001:000009F0       Sysinit.VclExit
 0001:00000A20       Sysinit._PackageLoad
 0001:00000A2C       Sysinit._PackageUnload
 0001:00000A38       Sysinit.Finalization
 0001:00000A68       Sysinit.initialization
 0001:00000A70       DllEntryPoint
 0001:00000A9C       Mxregister.Register
 0001:00000BA8       Mxregister.Finalization
 0001:00000BD8       Mxregister.initialization
 0001:00000BE0       ___CRTL_VCL_Init
 0001:00000C24       ___CRTL_VCL_Exit
 0001:00000C28       ___CRTL_VCLLIB_Linkage
 0001:00000C2C       ___CRTL_VCL_Sharemem
 0001:00000C88       ___CRTL_VCL_HookSystem
 0001:00000CE4       __ExceptInit
 0001:00000D30       __GetExceptDLLinfoInternal
 0001:00000D58       __InitExceptBlockLDTC
 0001:00000D91       __ExitExceptBlock
 0001:00000D9F       __ExceptionHandler
 0001:00000DC8       ___CRTL_DLL_Lock
 0001:00000DEC       ___CRTL_DLL_Unlock
 0001:00000E04       System.AnsiString
 0001:00000E3C       System.AnsiString
 0001:00000E6C       System.AnsiString
 0001:00000EEC       __InitVCL
 0001:00000F2C       __ExitVCL
 0001:00000F38       __LateVCLInit
 0001:00001800       Mxshortcut.MxMakeShortCut
 0001:00001914       Mxshortcut.MxGetSpecialName
 0001:00001968       Mxshortcut.MxShortCutToText
 0001:00001B88       Mxshortcut.TMxHotKey.Create
 0001:00001C5C       Mxshortcut.TMxHotKey.Destroy
 0001:00001C84       Mxshortcut.TMxHotKey.SetHotKey
 0001:00001CE4       Mxshortcut.TMxHotKey.KeyDown
 0001:00001D14       Mxshortcut.TMxHotKey.KeyUp
 0001:00001D3C       Mxshortcut.TMxHotKey.KeyPress
 0001:00001D44       Mxshortcut.Finalization
 0001:00001E20       Mxshortcut.initialization
 0001:000022A0       Renderwindow.TD3DWindow.Create
 0001:0000249C       Renderwindow.TD3DWindow.Destroy
 0001:000024F0       Renderwindow.TD3DWindow.ChangeFocus
 0001:00002518       Renderwindow.TD3DWindow.SetBorderStyle
 0001:0000252C       Renderwindow.TD3DWindow.CreateParams
 0001:000025C0       Renderwindow.TD3DWindow.CreateWindowHandle
 0001:00002630       Renderwindow.TD3DWindow.DefaultHandler
 0001:00002680       Renderwindow.TD3DWindow.WMPaint
 0001:00002698       Renderwindow.TD3DWindow.Paint
 0001:00002764       Renderwindow.TD3DWindow.SetDrawFocusRect
 0001:000027BC       Renderwindow.TD3DWindow.SetFocusedColor
 0001:000027D4       Renderwindow.TD3DWindow.SetUnfocusedColor
 0001:000027EC       Renderwindow.Finalization
 0001:0000281C       Renderwindow.initialization
 0001:00003AC4       Multi_edit.TMultiObjLWButton.Create
 0001:00003B9C       Multi_edit.TMultiObjLWButton.Destroy
 0001:00003BE4       Multi_edit.TMultiObjLWButton.Invalidate
 0001:00003BF4       Multi_edit.TMultiObjLWButton.GlyphChanged
 0001:00003C04       Multi_edit.TMultiObjLWButton.GetGlyph
 0001:00003C0C       Multi_edit.TMultiObjLWButton.SetGlyph
 0001:00003C4C       Multi_edit.TMultiObjLWButton.SetDown
 0001:00003C70       Multi_edit.TMultiObjLWButton.SetSens
 0001:00003CD4       Multi_edit.TMultiObjLWButton.SetFocusControl
 0001:00003CE8       Multi_edit.TMultiObjLWButton.Notification
 0001:00003D18       Multi_edit.TMultiObjLWButton.Paint
 0001:00003DA4       Multi_edit.TMultiObjLWButton.DrawAllBitmap
 0001:00003DC8       Multi_edit.TMultiObjLWButton.DrawBitmap
 0001:00003FA0       Multi_edit.TMultiObjLWButton.CMEnabledChanged
 0001:00003FBC       Multi_edit.TMultiObjLWButton.MouseDown
 0001:000040C8       Multi_edit.TMultiObjLWButton.MouseMove
 0001:00004194       Multi_edit.TMultiObjLWButton.MouseUp
 0001:000041F0       Multi_edit.TMultiObjLWButton.LWChange
 0001:00004218       Multi_edit.TMultiObjSpinButton.Create
 0001:00004340       Multi_edit.TMultiObjSpinButton.Destroy
 0001:000043A8       Multi_edit.TMultiObjSpinButton.GlyphChanged
 0001:000043B8       Multi_edit.TMultiObjSpinButton.GetUpGlyph
 0001:000043C0       Multi_edit.TMultiObjSpinButton.SetUpGlyph
 0001:00004400       Multi_edit.TMultiObjSpinButton.GetDownGlyph
 0001:00004408       Multi_edit.TMultiObjSpinButton.SetDownGlyph
 0001:00004448       Multi_edit.TMultiObjSpinButton.SetDown
 0001:0000446C       Multi_edit.TMultiObjSpinButton.SetFocusControl
 0001:00004480       Multi_edit.TMultiObjSpinButton.Notification
 0001:000044B0       Multi_edit.TMultiObjSpinButton.Paint
 0001:00004554       Multi_edit.TMultiObjSpinButton.DrawAllBitmap
 0001:00004588       Multi_edit.TMultiObjSpinButton.DrawBitmap
 0001:00004900       Multi_edit.TMultiObjSpinButton.CMEnabledChanged
 0001:0000491C       Multi_edit.TMultiObjSpinButton.TopClick
 0001:00004948       Multi_edit.TMultiObjSpinButton.BottomClick
 0001:00004974       Multi_edit.TMultiObjSpinButton.MouseDown
 0001:00004ABC       Multi_edit.TMultiObjSpinButton.MouseMove
 0001:00004BC0       Multi_edit.TMultiObjSpinButton.MouseUp
 0001:00004C28       Multi_edit.TMultiObjSpinButton.TimerExpired
 0001:00004CB8       Multi_edit.DefBtnWidth
 0001:00004E50       Multi_edit.TMultiObjUpDown.Create
 0001:00004EAC       Multi_edit.TMultiObjUpDown.Destroy
 0001:00004EE0       Multi_edit.TMultiObjUpDown.ScrollMessage
 0001:00004F90       Multi_edit.TMultiObjUpDown.WMHScroll
 0001:00004F98       Multi_edit.TMultiObjUpDown.WMVScroll
 0001:00004FA0       Multi_edit.TMultiObjUpDown.WMSize
 0001:00004FC4       Multi_edit.TMultiObjSpinEdit.Create
 0001:0000508C       Multi_edit.TMultiObjSpinEdit.Destroy
 0001:0000512C       Multi_edit.TMultiObjSpinEdit.RecreateButton
 0001:00005398       Multi_edit.TMultiObjSpinEdit.SetArrowKeys
 0001:000053A4       Multi_edit.TMultiObjSpinEdit.GetButtonKind
 0001:000053BC       Multi_edit.TMultiObjSpinEdit.SetButtonKind
 0001:000053F0       Multi_edit.TMultiObjSpinEdit.UpDownClick
 0001:00005444       Multi_edit.TMultiObjSpinEdit.LWChange
 0001:000055B0       Multi_edit.TMultiObjSpinEdit.GetButtonWidth
 0001:000055E4       Multi_edit.TMultiObjSpinEdit.ResizeButton
 0001:00005784       Multi_edit.TMultiObjSpinEdit.KeyDown
 0001:000057E4       Multi_edit.TMultiObjSpinEdit.Change
 0001:000057F4       Multi_edit.TMultiObjSpinEdit.KeyPress
 0001:00005868       Multi_edit.TMultiObjSpinEdit.IsValidChar
 0001:00005B28       Multi_edit.TMultiObjSpinEdit.CreateParams
 0001:00005B58       Multi_edit.TMultiObjSpinEdit.CreateWnd
 0001:00005B6C       Multi_edit.TMultiObjSpinEdit.SetEditRect
 0001:00005BC0       Multi_edit.TMultiObjSpinEdit.SetAlignment
 0001:00005BD4       Multi_edit.TMultiObjSpinEdit.WMSize
 0001:00005C00       Multi_edit.TMultiObjSpinEdit.UpClick
 0001:00005D34       Multi_edit.TMultiObjSpinEdit.DownClick
 0001:00005E68       Multi_edit.TMultiObjSpinEdit.CMFontChanged
 0001:00005E84       Multi_edit.TMultiObjSpinEdit.CMCtl3DChanged
 0001:00005EA0       Multi_edit.TMultiObjSpinEdit.CMEnabledChanged
 0001:00005F04       Multi_edit.TMultiObjSpinEdit.WMPaste
 0001:00005F24       Multi_edit.TMultiObjSpinEdit.WMCut
 0001:00005F44       Multi_edit.TMultiObjSpinEdit.CMExit
 0001:00005F98       Multi_edit.TMultiObjSpinEdit.CMEnter
 0001:00005FC0       Multi_edit.TMultiObjSpinEdit.GetValue
 0001:00006114       Multi_edit.TMultiObjSpinEdit.SetValue
 0001:00006218       Multi_edit.TMultiObjSpinEdit.GetAsInteger
 0001:0000622C       Multi_edit.TMultiObjSpinEdit.SetAsInteger
 0001:00006244       Multi_edit.TMultiObjSpinEdit.SetValueType
 0001:000062CC       Multi_edit.TMultiObjSpinEdit.IsIncrementStored
 0001:000062E8       Multi_edit.TMultiObjSpinEdit.IsMaxStored
 0001:00006304       Multi_edit.TMultiObjSpinEdit.IsMinStored
 0001:00006320       Multi_edit.TMultiObjSpinEdit.IsValueStored
 0001:0000633C       Multi_edit.TMultiObjSpinEdit.SetDecimal
 0001:00006364       Multi_edit.TMultiObjSpinEdit.SetButtonWidth
 0001:00006388       Multi_edit.TMultiObjSpinEdit.CheckValue
 0001:0000641C       Multi_edit.TMultiObjSpinEdit.ObjFirstInit
 0001:00006468       Multi_edit.TMultiObjSpinEdit.ObjNextInit
 0001:000064B4       Multi_edit.TMultiObjSpinEdit.ObjApplyFloat
 0001:000064D0       Multi_edit.TMultiObjSpinEdit.ObjApplyInt
 0001:000064F0       Multi_edit.TMultiObjSpinEdit.SetSens
 0001:00006520       Multi_edit.TMultiObjSpinEdit.GetSens
 0001:0000653C       Multi_edit.TMultiObjSpinEdit.SetBtnColor
 0001:00006574       Multi_edit.Finalization
 0001:000065A4       Multi_edit.initialization
 0001:000066C4       Multi_color.TMultiObjColor.Create
 0001:00006740       Multi_color.TMultiObjColor.Destroy
 0001:00006768       Multi_color.TMultiObjColor.ObjFirstInit
 0001:000067AC       Multi_color.TMultiObjColor.ObjNextInit
 0001:000067F8       Multi_color.TMultiObjColor.ObjApply
 0001:00006810       Multi_color.TMultiObjColor.Get
 0001:00006818       Multi_color.TMultiObjColor._Set
 0001:0000684C       Multi_color.TMultiObjColor.diffs
 0001:00006854       Multi_color.Finalization
 0001:00006884       Multi_color.initialization
 0001:00006A1C       Multi_check.TMultiObjCheck.ObjFirstInit
 0001:00006A3C       Multi_check.TMultiObjCheck.ObjNextInit
 0001:00006A74       Multi_check.TMultiObjCheck.ObjApply
 0001:00006A90       Multi_check.Finalization
 0001:00006AC0       Multi_check.initialization
 0001:000070F4       Gradient.TGradient.Create
 0001:000071E4       Gradient.TGradient.SetBeginColor
 0001:00007200       Gradient.TGradient.SetEndColor
 0001:0000721C       Gradient.TGradient.SetAutoSize
 0001:00007228       Gradient.TGradient.SetNumberOfColors
 0001:00007234       Gradient.TGradient.SetFont
 0001:00007254       Gradient.TGradient.SetCaption
 0001:000072AC       Gradient.TGradient.SetTextTop
 0001:000072B8       Gradient.TGradient.SetTextLeft
 0001:000072C4       Gradient.TGradient.Paint
 0001:000072E8       Gradient.TGradient.GradientFill
 0001:00007734       Gradient.TGradient.SetFillDirection
 0001:00007758       Gradient.TGradient.SetBorder
 0001:0000776C       Gradient.TGradient.SetBorderWidth
 0001:00007790       Gradient.TGradient.SetBorderColor
 0001:000077A4       Gradient.Finalization
 0001:000077D4       Gradient.initialization
 0001:00008280       Extbtn.TGlyphList.CreateSize
 0001:000082D4       Extbtn.TGlyphList.Destroy
 0001:00008304       Extbtn.TGlyphList.AllocateIndex
 0001:00008350       Extbtn.TGlyphList.AddMasked
 0001:0000837C       Extbtn.TGlyphList.Delete
 0001:000083AC       Extbtn.TGlyphCache.Create
 0001:000083F0       Extbtn.TGlyphCache.Destroy
 0001:00008420       Extbtn.TGlyphCache.GetList
 0001:00008480       Extbtn.TGlyphCache.ReturnList
 0001:000084A4       Extbtn.TGlyphCache.Empty
 0001:000084B0       Extbtn.TButtonGlyph.Create
 0001:00008544       Extbtn.TButtonGlyph.Destroy
 0001:000085A0       Extbtn.TButtonGlyph.Invalidate
 0001:000085E8       Extbtn.TButtonGlyph.GlyphChanged
 0001:00008610       Extbtn.TButtonGlyph.SetGlyph
 0001:00008684       Extbtn.TButtonGlyph.SetNumGlyphs
 0001:000086AC       Extbtn.TButtonGlyph.CreateButtonGlyph
 0001:00008C88       Extbtn.TButtonGlyph.DrawButtonGlyph
 0001:00008D40       Extbtn.TButtonGlyph.DrawButtonText
 0001:00008E20       Extbtn.TButtonGlyph.CalcButtonLayout
 0001:00009128       Extbtn.TButtonGlyph.Draw
 0001:00009198       Extbtn.TExtBtn.Create
 0001:00009324       Extbtn.TExtBtn.Destroy
 0001:00009368       Extbtn.TExtBtn.Paint
 0001:000098EC       Extbtn.TExtBtn.UpdateMouseInControl
 0001:00009938       Extbtn.TExtBtn.UpdateTracking
 0001:0000999C       Extbtn.TExtBtn.Loaded
 0001:000099D8       Extbtn.TExtBtn.MouseDown
 0001:00009A8C       Extbtn.TExtBtn.MouseMove
 0001:00009B2C       Extbtn.TExtBtn.MouseUp
 0001:00009D00       Extbtn.TExtBtn.MouseManualUp
 0001:00009D08       Extbtn.TExtBtn.Click
 0001:00009D10       Extbtn.TExtBtn.GetPalette
 0001:00009D24       Extbtn.TExtBtn.GetGlyph
 0001:00009D30       Extbtn.TExtBtn.SetGlyph
 0001:00009D48       Extbtn.TExtBtn.GetNumGlyphs
 0001:00009D54       Extbtn.TExtBtn.SetNumGlyphs
 0001:00009D80       Extbtn.TExtBtn.GlyphChanged
 0001:00009D88       Extbtn.TExtBtn.UpdateExclusive
 0001:00009DC0       Extbtn.TExtBtn.SetDown
 0001:00009E30       Extbtn.TExtBtn.SetFlat
 0001:00009E4C       Extbtn.TExtBtn.SetGroupIndex
 0001:00009E60       Extbtn.TExtBtn.SetLayout
 0001:00009E7C       Extbtn.TExtBtn.SetMargin
 0001:00009E9C       Extbtn.TExtBtn.SetExtMargin
 0001:00009EBC       Extbtn.TExtBtn.SetSpacing
 0001:00009ED8       Extbtn.TExtBtn.SetTransparent
 0001:00009F14       Extbtn.TExtBtn.SetAllowAllUp
 0001:00009F28       Extbtn.TExtBtn.WMLButtonDblClk
 0001:00009F48       Extbtn.TExtBtn.CMEnabledChanged
 0001:00009F7C       Extbtn.TExtBtn.CMButtonPressed
 0001:00009FC8       Extbtn.TExtBtn.CMDialogChar
 0001:0000A060       Extbtn.TExtBtn.CMFontChanged
 0001:0000A068       Extbtn.TExtBtn.CMTextChanged
 0001:0000A070       Extbtn.TExtBtn.CMSysColorChange
 0001:0000A094       Extbtn.TExtBtn.CMMouseEnter
 0001:0000A0E0       Extbtn.TExtBtn.CMMouseLeave
 0001:0000A120       CopyImage
 0001:0000A1B0       Extbtn.TExtBtn.ActionChange
 0001:0000A230       Extbtn.TExtBtn.SetExtWidth
 0001:0000A260       Extbtn.TExtBtn.SetExtButton
 0001:0000A27C       Extbtn.TExtBtn.SetBevelShow
 0001:0000A298       Extbtn.TExtBtn.SetBtnColor
 0001:0000A2CC       Extbtn.TExtBtn.SetNormalColor
 0001:0000A2F4       Extbtn.TExtBtn.SetDownColor
 0001:0000A310       Extbtn.TExtBtn.SetHotTrack
 0001:0000A32C       Extbtn.TExtBtn.SetExtTransparent
 0001:0000A348       Extbtn.TExtBtn.SetThinBorder
 0001:0000A364       Extbtn.TExtBtn.SetKind
 0001:0000A424       Extbtn.Finalization
 0001:0000A454       Extbtn.initialization
 0001:0000D790       Mxctrls.TTextListBox.SetHorizontalExtent
 0001:0000D7B0       Mxctrls.TTextListBox.GetItemWidth
 0001:0000D8AC       Mxctrls.TTextListBox.ResetHorizontalExtent
 0001:0000D8FC       Mxctrls.TTextListBox.WndProc
 0001:0000DB00       Mxctrls.TMxListBoxStrings.GetCount
 0001:0000DB1C       Mxctrls.TMxListBoxStrings.Get
 0001:0000DBC0       Mxctrls.TMxListBoxStrings.GetObject
 0001:0000DC30       Mxctrls.TMxListBoxStrings.PutObject
 0001:0000DC40       Mxctrls.TMxListBoxStrings.Add
 0001:0000DCD4       Mxctrls.TMxListBoxStrings.Insert
 0001:0000DD68       Mxctrls.TMxListBoxStrings.Delete
 0001:0000DD78       Mxctrls.TMxListBoxStrings.Clear
 0001:0000DD88       Mxctrls.TMxListBoxStrings.SetUpdateState
 0001:0000DDBC       ReturnAddr
 0001:0000DDC0       Mxctrls.ListIndexError
 0001:0000DE34       Mxctrls.TMxCustomListBox.Create
 0001:0000DF0C       Mxctrls.TMxCustomListBox.Destroy
 0001:0000DF54       Mxctrls.TMxCustomListBox.CreateItemList
 0001:0000DF64       Mxctrls.TMxCustomListBox.GetItemData
 0001:0000DF84       Mxctrls.TMxCustomListBox.SetItemData
 0001:0000DFA8       Mxctrls.TMxCustomListBox.DeleteString
 0001:0000DFC8       Mxctrls.TMxCustomListBox.SetHorizontalExtent
 0001:0000DFE8       Mxctrls.TMxCustomListBox.GetItemWidth
 0001:0000E124       Mxctrls.TMxCustomListBox.ResetHorizontalExtent
 0001:0000E174       Mxctrls.TMxCustomListBox.ResetContent
 0001:0000E190       Mxctrls.TMxCustomListBox.Clear
 0001:0000E19C       Mxctrls.TMxCustomListBox.SetColumnWidth
 0001:0000E1D4       Mxctrls.TMxCustomListBox.SetColumns
 0001:0000E218       Mxctrls.TMxCustomListBox.GetItemIndex
 0001:0000E234       Mxctrls.TMxCustomListBox.GetSelCount
 0001:0000E250       Mxctrls.TMxCustomListBox.SetItemIndex
 0001:0000E27C       Mxctrls.TMxCustomListBox.SetExtendedSelect
 0001:0000E290       Mxctrls.TMxCustomListBox.SetIntegralHeight
 0001:0000E2A4       Mxctrls.TMxCustomListBox.GetAutoScroll
 0001:0000E2BC       Mxctrls.TMxCustomListBox.SetOnDrawItem
 0001:0000E34C       Mxctrls.TMxCustomListBox.SetOnGetItemWidth
 0001:0000E3DC       Mxctrls.TMxCustomListBox.SetAutoScroll
 0001:0000E440       Mxctrls.TMxCustomListBox.GetItemHeight
 0001:0000E484       Mxctrls.TMxCustomListBox.SetItemHeight
 0001:0000E49C       Mxctrls.TMxCustomListBox.SetTabWidth
 0001:0000E4B8       Mxctrls.TMxCustomListBox.SetMultiSelect
 0001:0000E4CC       Mxctrls.TMxCustomListBox.GetSelected
 0001:0000E500       Mxctrls.TMxCustomListBox.SetSelected
 0001:0000E560       Mxctrls.TMxCustomListBox.SetSorted
 0001:0000E574       Mxctrls.TMxCustomListBox.SetStyle
 0001:0000E588       Mxctrls.TMxCustomListBox.GetTopIndex
 0001:0000E5A4       Mxctrls.TMxCustomListBox.SetBorderStyle
 0001:0000E5B8       Mxctrls.TMxCustomListBox.SetTopIndex
 0001:0000E5E4       Mxctrls.TMxCustomListBox.SetGraySelection
 0001:0000E610       Mxctrls.TMxCustomListBox.SetItems
 0001:0000E620       Mxctrls.TMxCustomListBox.ItemAtPos
 0001:0000E6AC       Mxctrls.TMxCustomListBox.ItemRect
 0001:0000E710       Mxctrls.TMxCustomListBox.CreateParams
 0001:0000E7F4       Mxctrls.TMxCustomListBox.CreateWnd
 0001:0000E894       Mxctrls.TMxCustomListBox.DestroyWnd
 0001:0000E8EC       Mxctrls.TMxCustomListBox.WndProc
 0001:0000EA58       Mxctrls.TMxCustomListBox.WMLButtonDown
 0001:0000EAF4       Mxctrls.TMxCustomListBox.WMNCHitTest
 0001:0000EB18       Mxctrls.TMxCustomListBox.CNCommand
 0001:0000EB4C       PaintListBox
 0001:0000ECAC       Mxctrls.TMxCustomListBox.WMPaint
 0001:0000ECDC       Mxctrls.TMxCustomListBox.WMSize
 0001:0000ECF0       Mxctrls.TMxCustomListBox.DragCanceled
 0001:0000ED50       Mxctrls.TMxCustomListBox.DefaultDrawText
 0001:0000EDFC       Mxctrls.TMxCustomListBox.DrawItem
 0001:0000EEFC       Mxctrls.TMxCustomListBox.MeasureItem
 0001:0000EF1C       Mxctrls.TMxCustomListBox.CNDrawItem
 0001:0000F030       Mxctrls.TMxCustomListBox.CNMeasureItem
 0001:0000F058       Mxctrls.TMxCustomListBox.WMKillFocus
 0001:0000F088       Mxctrls.TMxCustomListBox.WMSetFocus
 0001:0000F0B8       Mxctrls.TMxCustomListBox.CMCtl3DChanged
 0001:0000F170       Mxctrls.TCheckListBoxItem.Create
 0001:0000F1B0       Mxctrls.TCheckListBoxItem.GetChecked
 0001:0000F2CC       Mxctrls.TCheckListBoxStrings.Exchange
 0001:0000F354       Mxctrls.TCheckListBoxStrings.Move
 0001:0000F3A8       Mxctrls.CheckBitmap
 0001:0000F3F4       Mxctrls.DestroyLocals
 0001:0000F410       Mxctrls.TMxCheckListBox.Create
 0001:0000F4DC       Mxctrls.TMxCheckListBox.Destroy
 0001:0000F534       Mxctrls.TMxCheckListBox.Loaded
 0001:0000F548       Mxctrls.TMxCheckListBox.CreateItemList
 0001:0000F558       Mxctrls.TMxCheckListBox.InternalSaveStates
 0001:0000F640       Mxctrls.TMxCheckListBox.InternalRestoreStates
 0001:0000F730       Mxctrls.TMxCheckListBox.SaveStatesReg
 0001:0000F784       Mxctrls.TMxCheckListBox.RestoreStatesReg
 0001:0000F7D8       Mxctrls.TMxCheckListBox.SaveStates
 0001:0000F82C       Mxctrls.TMxCheckListBox.RestoreStates
 0001:0000F880       Mxctrls.TMxCheckListBox.GetStorage
 0001:0000F88C       Mxctrls.TMxCheckListBox.SetStorage
 0001:0000F898       Mxctrls.TMxCheckListBox.IniSave
 0001:0000F92C       Mxctrls.TMxCheckListBox.IniLoad
 0001:0000F9C0       Mxctrls.TMxCheckListBox.ReadCheckData
 0001:0000FB10       Mxctrls.TMxCheckListBox.WriteCheckData
 0001:0000FBC4       Mxctrls.TMxCheckListBox.ReadVersion
 0001:0000FBDC       Mxctrls.TMxCheckListBox.WriteVersion
 0001:0000FBEC       DoWrite
 0001:0000FD48       Mxctrls.TMxCheckListBox.DefineProperties
 0001:0000FDE0       Mxctrls.TMxCheckListBox.CreateWnd
 0001:0000FE0C       Mxctrls.TMxCheckListBox.DestroyWnd
 0001:0000FE14       Mxctrls.TMxCheckListBox.WMDestroy
 0001:0000FEB0       Mxctrls.TMxCheckListBox.CreateParams
 0001:0000FEC8       Mxctrls.TMxCheckListBox.SetItems
 0001:0000FFA4       Mxctrls.TMxCheckListBox.GetItemWidth
 0001:0000FFC4       Mxctrls.TMxCheckListBox.GetCheckWidth
 0001:0000FFD0       Mxctrls.TMxCheckListBox.GetAllowGrayed
 0001:0000FFF0       Mxctrls.TMxCheckListBox.CMFontChanged
 0001:00010004       Mxctrls.TMxCheckListBox.GetItemHeight
 0001:0001005C       Mxctrls.TMxCheckListBox.ResetItemHeight
 0001:00010118       Mxctrls.TMxCheckListBox.DrawItem
 0001:00010288       Mxctrls.TMxCheckListBox.CNDrawItem
 0001:000102C8       Mxctrls.TMxCheckListBox.DrawCheck
 0001:00010420       Mxctrls.TMxCheckListBox.ApplyState
 0001:00010478       Mxctrls.TMxCheckListBox.GetCheckedIndex
 0001:000104BC       Mxctrls.TMxCheckListBox.SetCheckedIndex
 0001:000104F4       Mxctrls.TMxCheckListBox.UpdateCheckStates
 0001:00010570       Mxctrls.TMxCheckListBox.SetCheckKind
 0001:00010594       Mxctrls.TMxCheckListBox.SetChecked
 0001:000105A4       Mxctrls.TMxCheckListBox.SetState
 0001:0001065C       Mxctrls.TMxCheckListBox.SetItemEnabled
 0001:0001068C       Mxctrls.TMxCheckListBox.InvalidateCheck
 0001:00010704       Mxctrls.TMxCheckListBox.InvalidateItem
 0001:0001074C       Mxctrls.TMxCheckListBox.GetChecked
 0001:00010778       Mxctrls.TMxCheckListBox.GetState
 0001:000107B0       Mxctrls.TMxCheckListBox.GetItemEnabled
 0001:000107D8       Mxctrls.TMxCheckListBox.KeyPress
 0001:00010840       Mxctrls.TMxCheckListBox.MouseDown
 0001:00010904       Mxctrls.TMxCheckListBox.ToggleClickCheck
 0001:00010974       Mxctrls.TMxCheckListBox.ChangeItemState
 0001:00010994       Mxctrls.TMxCheckListBox.ClickCheck
 0001:000109B4       Mxctrls.TMxCheckListBox.GetItemData
 0001:000109E0       Mxctrls.TMxCheckListBox.GetCheckObject
 0001:00010A00       Mxctrls.TMxCheckListBox.FindCheckObject
 0001:00010A38       Mxctrls.TMxCheckListBox.CreateCheckObject
 0001:00010A60       Mxctrls.TMxCheckListBox.IsCheckObject
 0001:00010A78       Mxctrls.TMxCheckListBox.SetItemData
 0001:00010AD4       Mxctrls.TMxCheckListBox.ResetContent
 0001:00010B24       Mxctrls.TMxCheckListBox.DeleteString
 0001:00010B5C       Mxctrls.DrawShadowText
 0001:00010C60       Mxctrls.TMxCustomLabel.Create
 0001:00010CF4       Mxctrls.TMxCustomLabel.GetLabelCaption
 0001:00010D08       Mxctrls.TMxCustomLabel.GetDefaultFontColor
 0001:00010D10       Mxctrls.TMxCustomLabel.DoDrawText
 0001:00010E78       Mxctrls.TMxCustomLabel.Paint
 0001:00011008       Mxctrls.TMxCustomLabel.AdjustBounds
 0001:00011108       Mxctrls.TMxCustomLabel.SetAlignment
 0001:00011124       Mxctrls.TMxCustomLabel.SetAutoSize
 0001:00011138       Mxctrls.TMxCustomLabel.SetLayout
 0001:00011154       Mxctrls.TMxCustomLabel.SetLeftMargin
 0001:00011184       Mxctrls.TMxCustomLabel.SetRightMargin
 0001:000111B4       Mxctrls.TMxCustomLabel.SetShadowColor
 0001:000111D0       Mxctrls.TMxCustomLabel.SetShadowSize
 0001:000111F4       Mxctrls.TMxCustomLabel.SetShadowPos
 0001:00011210       Mxctrls.TMxCustomLabel.GetTransparent
 0001:0001121C       Mxctrls.TMxCustomLabel.SetFocusControl
 0001:00011244       Mxctrls.TMxCustomLabel.SetShowAccelChar
 0001:00011260       Mxctrls.TMxCustomLabel.SetTransparent
 0001:000112A0       Mxctrls.TMxCustomLabel.SetShowFocus
 0001:000112BC       Mxctrls.TMxCustomLabel.SetWordWrap
 0001:000112D0       Mxctrls.TMxCustomLabel.Notification
 0001:00011300       Mxctrls.TMxCustomLabel.MouseDown
 0001:00011340       Mxctrls.TMxCustomLabel.MouseUp
 0001:00011384       Mxctrls.TMxCustomLabel.MouseEnter
 0001:000113A4       Mxctrls.TMxCustomLabel.MouseLeave
 0001:000113C4       Mxctrls.TMxCustomLabel.UpdateTracking
 0001:00011430       Mxctrls.TMxCustomLabel.CMFocusChanged
 0001:00011478       Mxctrls.TMxCustomLabel.CMTextChanged
 0001:0001148C       Mxctrls.TMxCustomLabel.CMFontChanged
 0001:000114A0       Mxctrls.TMxCustomLabel.CMDialogChar
 0001:00011540       Mxctrls.TMxCustomLabel.WMRButtonDown
 0001:00011554       Mxctrls.TMxCustomLabel.WMRButtonUp
 0001:00011568       Mxctrls.TMxCustomLabel.CMEnabledChanged
 0001:0001157C       Mxctrls.TMxCustomLabel.CMVisibleChanged
 0001:00011598       Mxctrls.TMxCustomLabel.CMMouseEnter
 0001:000115D4       Mxctrls.TMxCustomLabel.CMMouseLeave
 0001:00011748       Mxctrls.TGlyphList.CreateSize
 0001:0001179C       Mxctrls.TGlyphList.Destroy
 0001:000117CC       Mxctrls.TGlyphList.AllocateIndex
 0001:00011818       Mxctrls.TGlyphList.Add
 0001:00011844       Mxctrls.TGlyphList.AddMasked
 0001:00011870       Mxctrls.TGlyphList.Delete
 0001:000118A0       Mxctrls.TGlyphCache.Create
 0001:000118E4       Mxctrls.TGlyphCache.Destroy
 0001:00011914       Mxctrls.TGlyphCache.GetList
 0001:00011974       Mxctrls.TGlyphCache.ReturnList
 0001:00011998       Mxctrls.TGlyphCache.Empty
 0001:000119A4       Mxctrls.TMxButtonGlyph.Create
 0001:00011A3C       Mxctrls.TMxButtonGlyph.Destroy
 0001:00011A98       Mxctrls.TMxButtonGlyph.Invalidate
 0001:00011AE4       Mxctrls.TMxButtonGlyph.GlyphChanged
 0001:00011B70       Mxctrls.TMxButtonGlyph.SetGlyph
 0001:00011B8C       Mxctrls.TMxButtonGlyph.SetNumGlyphs
 0001:00011BA8       Mxctrls.TMxButtonGlyph.MapColor
 0001:00011C20       Mxctrls.TMxButtonGlyph.CreateImageGlyph
 0001:00011F98       Mxctrls.TMxButtonGlyph.CreateButtonGlyph
 0001:000122FC       DrawMark
 0001:00012394       Mxctrls.TMxButtonGlyph.DrawPopupMark
 0001:000123E0       Mxctrls.TMxButtonGlyph.DrawButtonGlyph
 0001:00012474       Mxctrls.TMxButtonGlyph.DrawButtonImage
 0001:00012558       Mxctrls.TMxButtonGlyph.MinimizeCaption
 0001:0001266C       Mxctrls.TMxButtonGlyph.DrawButtonText
 0001:0001276C       Mxctrls.TMxButtonGlyph.CalcButtonLayout
 0001:00012C18       Mxctrls.TMxButtonGlyph.Draw
 0001:00012C5C       Mxctrls.TMxButtonGlyph.DrawEx
 0001:00012E0C       Mxctrls.DrawButtonFrame
 0001:00012FDC       Mxctrls.TButtonImage.Create
 0001:00013048       Mxctrls.TButtonImage.Destroy
 0001:00013078       Mxctrls.TButtonImage.Invalidate
 0001:00013084       Mxctrls.TButtonImage.GetNumGlyphs
 0001:0001308C       Mxctrls.TButtonImage.SetNumGlyphs
 0001:00013098       Mxctrls.TButtonImage.GetWordWrap
 0001:000130A0       Mxctrls.TButtonImage.SetWordWrap
 0001:000130A8       Mxctrls.TButtonImage.GetGlyph
 0001:000130B0       Mxctrls.TButtonImage.SetGlyph
 0001:000130BC       Mxctrls.TButtonImage.GetAlignment
 0001:000130C4       Mxctrls.TButtonImage.SetAlignment
 0001:000130CC       Mxctrls.TButtonImage.Draw
 0001:000130F8       Mxctrls.TButtonImage.DrawEx
 0001:00013228       Mxctrls.TMxPanel.Paint
 0001:0001324C       Mxctrls.TMxSpeedButton.Create
 0001:00013350       Mxctrls.TMxSpeedButton.Destroy
 0001:000133A8       Mxctrls.TMxSpeedButton.Loaded
 0001:000133E0       Mxctrls.TMxSpeedButton.PaintGlyph
 0001:00013488       Mxctrls.TMxSpeedButton.Paint
 0001:000136DC       Mxctrls.TMxSpeedButton.Notification
 0001:0001370C       Mxctrls.TMxSpeedButton.GetDropDownMenuPos
 0001:000137B8       Mxctrls.TMxSpeedButton.CheckBtnMenuDropDown
 0001:000137E0       Mxctrls.TMxSpeedButton.CheckMenuDropDown
 0001:0001385C       Mxctrls.TMxSpeedButton.MouseEnter
 0001:0001387C       Mxctrls.TMxSpeedButton.MouseLeave
 0001:0001389C       Mxctrls.TMxSpeedButton.MouseDown
 0001:00013A88       Mxctrls.TMxSpeedButton.MouseMove
 0001:00013B1C       Mxctrls.TMxSpeedButton.MouseUp
 0001:00013B68       Mxctrls.TMxSpeedButton.DoMouseUp
 0001:00013C60       Mxctrls.TMxSpeedButton.ButtonClick
 0001:00013D60       Mxctrls.TMxSpeedButton.Click
 0001:00013D84       Mxctrls.TMxSpeedButton.GetPalette
 0001:00013D98       Mxctrls.TMxSpeedButton.GetWordWrap
 0001:00013DA4       Mxctrls.TMxSpeedButton.SetWordWrap
 0001:00013DC8       Mxctrls.TMxSpeedButton.GetAlignment
 0001:00013DD4       Mxctrls.TMxSpeedButton.SetAlignment
 0001:00013DF8       Mxctrls.TMxSpeedButton.GetGlyph
 0001:00013E04       Mxctrls.TMxSpeedButton.SetGlyph
 0001:00013E1C       Mxctrls.TMxSpeedButton.GetNumGlyphs
 0001:00013E28       Mxctrls.TMxSpeedButton.SetNumGlyphs
 0001:00013E54       Mxctrls.TMxSpeedButton.GlyphChanged
 0001:00013E5C       Mxctrls.TMxSpeedButton.UpdateExclusive
 0001:00013E94       Mxctrls.TMxSpeedButton.SetDown
 0001:00013F08       Mxctrls.TMxSpeedButton.SetGroupIndex
 0001:00013F1C       Mxctrls.TMxSpeedButton.SetLayout
 0001:00013F38       Mxctrls.TMxSpeedButton.SetMargin
 0001:00013F58       Mxctrls.TMxSpeedButton.SetSpacing
 0001:00013F74       Mxctrls.TMxSpeedButton.SetAllowAllUp
 0001:00013F88       Mxctrls.TMxSpeedButton.SetAllowTimer
 0001:00013FC8       Mxctrls.TMxSpeedButton.SetDropDownMenu
 0001:00013FF0       Mxctrls.TMxSpeedButton.SetInactiveGrayed
 0001:0001400C       Mxctrls.TMxSpeedButton.SetFlat
 0001:00014028       Mxctrls.TMxSpeedButton.SetStyle
 0001:00014044       Mxctrls.TMxSpeedButton.SetMarkDropDown
 0001:00014060       Mxctrls.TMxSpeedButton.SetTransparent
 0001:0001407C       Mxctrls.TMxSpeedButton.WMRButtonDown
 0001:00014090       Mxctrls.TMxSpeedButton.WMRButtonUp
 0001:000140A4       Mxctrls.TMxSpeedButton.WMLButtonDblClk
 0001:000140D0       Mxctrls.TMxSpeedButton.CMEnabledChanged
 0001:00014118       Mxctrls.TMxSpeedButton.CMVisibleChanged
 0001:00014134       Mxctrls.TMxSpeedButton.CMMouseEnter
 0001:00014184       Mxctrls.TMxSpeedButton.CMMouseLeave
 0001:000141D4       Mxctrls.TMxSpeedButton.WMMouseMove
 0001:000141DC       Mxctrls.TMxSpeedButton.CMButtonPressed
 0001:00014254       Mxctrls.TMxSpeedButton.CMDialogChar
 0001:000142D4       Mxctrls.TMxSpeedButton.CMFontChanged
 0001:000142DC       Mxctrls.TMxSpeedButton.CMTextChanged
 0001:000142E4       Mxctrls.TMxSpeedButton.CMSysColorChange
 0001:000142FC       Mxctrls.TMxSpeedButton.UpdateTracking
 0001:0001438C       Mxctrls.TMxSpeedButton.TimerExpired
 0001:00014410       CopyImage
 0001:000144AC       Mxctrls.TMxSpeedButton.ActionChange
 0001:00014558       Mxctrls.Finalization
 0001:00014590       Mxctrls.initialization
 0001:00014C8C       Mxmenus.BtnStyle
 0001:00014CA0       Mxmenus.IsItemPopup
 0001:00014CD0       Mxmenus.MenuWndMessage
 0001:00014DCC       Mxmenus.SetDefaultMenuFont
 0001:00014E9C       Mxmenus.GetDefItemHeight
 0001:00014EB4       Mxmenus.GetMarginOffset
 0001:00014EE0       Mxmenus.MenuLine
 0001:00014F10       Mxmenus.DrawDisabledBitmap
 0001:0001511C       Mxmenus.DrawMenuBitmap
 0001:000151B4       MenuTextOut
 0001:000152D8       DrawCheckImage
 0001:0001542C       DrawGlyphCheck
 0001:00015538       UseImages
 0001:00015578       Mxmenus.DrawMenuItem
 0001:00015F44       GetTextWidth
 0001:000160F4       Mxmenus.MenuMeasureItem
 0001:000163E4       Mxmenus.TPopupList.WndProc
 0001:00016750       Mxmenus.TPopupList.Add
 0001:00016778       Mxmenus.TPopupList.Remove
 0001:00016794       Mxmenus.TMxPopupMenu.Create
 0001:000168A4       Mxmenus.TMxPopupMenu.Destroy
 0001:000168F4       Mxmenus.TMxPopupMenu.Loaded
 0001:00016914       Mxmenus.TMxPopupMenu.Notification
 0001:00016944       Mxmenus.TMxPopupMenu.ImageListChange
 0001:00016964       Mxmenus.TMxPopupMenu.SetImages
 0001:000169C8       Mxmenus.FindPopupControl
 0001:000169F8       Mxmenus.TMxPopupMenu.SetBiDiModeFromPopupControl
 0001:00016A40       Mxmenus.TMxPopupMenu.UseRightToLeftAlignment
 0001:00016A90       Mxmenus.TMxPopupMenu.Popup
 0001:00016BA4       Mxmenus.TMxPopupMenu.Refresh
 0001:00016BBC       Mxmenus.TMxPopupMenu.IsOwnerDrawMenu
 0001:00016BE8       Mxmenus.TMxPopupMenu.RefreshMenu
 0001:00016C00       Mxmenus.TMxPopupMenu.SetStyle
 0001:00016C24       Mxmenus.TMxPopupMenu.DefaultDrawItem
 0001:00016D0C       Mxmenus.TMxPopupMenu.DrawItem
 0001:00016E40       Mxmenus.TMxPopupMenu.MeasureItem
 0001:00016E6C       Mxmenus.TMxPopupMenu.WndMessage
 0001:00016E94       Mxmenus.TMxPopupMenu.GetItemParams
 0001:00016F08       Mxmenus.TMxPopupMenu.GetImageIndex
 0001:00016F68       Mxmenus.TMxPopupMenu.DefaultDrawMargin
 0001:00016FF0       Mxmenus.TMxPopupMenu.DrawMargin
 0001:00017034       Mxmenus.TMxPopupMenu.WMDrawItem
 0001:00017204       Mxmenus.TMxPopupMenu.WMMeasureItem
 0001:000173B4       Mxmenus.Finalization
 0001:000173F8       Mxmenus.initialization
 0001:0001740C       Mxpropsed.TFormPropsDlg
 0001:000177C8       Mxpropsed.TFormStorageEditor
 0001:00017874       Mxpropsed.TStoredPropsProperty
 0001:00017944       Mxpropsed.TFormStorageEditor.ExecuteVerb
 0001:000179D4       Mxpropsed.TFormStorageEditor.GetVerb
 0001:000179F4       Mxpropsed.TFormStorageEditor.GetVerbCount
 0001:000179FC       Mxpropsed.TStoredPropsProperty.GetAttributes
 0001:00017A28       Mxpropsed.TStoredPropsProperty.GetValue
 0001:00017A98       Mxpropsed.TStoredPropsProperty.Edit
 0001:00017AE0       Mxpropsed.ShowStorageDesigner
 0001:00017CBC       mxPropsEd._16398
 0001:00017CF0       Mxpropsed.TFormPropsDlg.ListToIndex
 0001:00017D58       Mxpropsed.TFormPropsDlg.UpdateCurrent
 0001:00017E1C       Mxpropsed.TFormPropsDlg.DeleteProp
 0001:00017FB4       Mxpropsed.TFormPropsDlg.FindProp
 0001:00018020       Mxpropsed.TFormPropsDlg.ClearLists
 0001:0001809C       Mxpropsed.TFormPropsDlg.AddItem
 0001:00018204       Mxpropsed.TFormPropsDlg.CheckAddItem
 0001:0001823C       Mxpropsed.TFormPropsDlg.BuildLists
 0001:00018470       Mxpropsed.TFormPropsDlg.SetStoredList
 0001:000184A8       Mxpropsed.TFormPropsDlg.CheckButtons
 0001:00018590       Mxpropsed.TFormPropsDlg.AddButtonClick
 0001:00018630       Mxpropsed.TFormPropsDlg.ClearButtonClick
 0001:00018668       Mxpropsed.TFormPropsDlg.DeleteButtonClick
 0001:00018684       Mxpropsed.TFormPropsDlg.ListClick
 0001:00018698       Mxpropsed.TFormPropsDlg.FormDestroy
 0001:000186A0       Mxpropsed.TFormPropsDlg.StoredListClick
 0001:000186A8       Mxpropsed.TFormPropsDlg.UpBtnClick
 0001:000186E4       Mxpropsed.TFormPropsDlg.DownBtnClick
 0001:00018720       Mxpropsed.TFormPropsDlg.StoredListDragOver
 0001:00018758       Mxpropsed.TFormPropsDlg.StoredListDragDrop
 0001:000187B0       Mxpropsed.TFormPropsDlg.PropertiesListDblClick
 0001:000187D0       Mxpropsed.Finalization
 0001:00018800       Mxpropsed.initialization
 0001:000191A0       Mxplacemnt.TFormPlacement.Create
 0001:00019260       Mxplacemnt.TFormPlacement.Destroy
 0001:000192E0       Mxplacemnt.TFormPlacement.Loaded
 0001:00019310       Mxplacemnt.TFormPlacement.AddLink
 0001:00019328       Mxplacemnt.TFormPlacement.NotifyLinks
 0001:00019368       Mxplacemnt.TFormPlacement.RemoveLink
 0001:00019378       Mxplacemnt.TFormPlacement.GetForm
 0001:000193A8       Mxplacemnt.TFormPlacement.SetEvents
 0001:0001944C       Mxplacemnt.TFormPlacement.RestoreEvents
 0001:000194A8       Mxplacemnt.TFormPlacement.SetHook
 0001:000194DC       Mxplacemnt.TFormPlacement.ReleaseHook
 0001:000194E8       Mxplacemnt.TFormPlacement.CheckToggleHook
 0001:00019510       Mxplacemnt.TFormPlacement.CheckMinMaxInfo
 0001:00019520       Mxplacemnt.TFormPlacement.MinMaxInfoModified
 0001:0001953C       Mxplacemnt.TFormPlacement.SetWinMinMaxInfo
 0001:00019548       Mxplacemnt.TFormPlacement.WndMessage
 0001:000197D8       Mxplacemnt.TFormPlacement.FormShow
 0001:00019848       Mxplacemnt.TFormPlacement.FormCloseQuery
 0001:000198DC       Mxplacemnt.TFormPlacement.FormDestroy
 0001:00019964       Mxplacemnt.TFormPlacement.UpdatePlacement
 0001:00019A88       Mxplacemnt.TFormPlacement.UpdatePreventResize
 0001:00019B9C       Mxplacemnt.TFormPlacement.SetPreventResize
 0001:00019BC8       Mxplacemnt.TFormPlacement.GetIniFile
 0001:00019BD8       Mxplacemnt.TFormPlacement.GetIniFileName
 0001:00019C10       Mxplacemnt.TFormPlacement.SetIniFileName
 0001:00019C1C       Mxplacemnt.TFormPlacement.GetIniSection
 0001:00019C48       Mxplacemnt.TFormPlacement.SetIniSection
 0001:00019C54       Mxplacemnt.TFormPlacement.Save
 0001:00019C74       Mxplacemnt.TFormPlacement.Restore
 0001:00019C94       Mxplacemnt.TFormPlacement.SavePlacement
 0001:00019E60       Mxplacemnt.TFormPlacement.RestorePlacement
 0001:00019F20       Mxplacemnt.TFormPlacement.IniNeeded
 0001:0001A050       Mxplacemnt.TFormPlacement.IniFree
 0001:0001A078       Mxplacemnt.TFormPlacement.DoReadString
 0001:0001A100       Mxplacemnt.TFormPlacement.ReadString
 0001:0001A168       Mxplacemnt.TFormPlacement.DoWriteString
 0001:0001A1E8       Mxplacemnt.TFormPlacement.WriteString
 0001:0001A240       Mxplacemnt.TFormPlacement.ReadInteger
 0001:0001A31C       Mxplacemnt.TFormPlacement.WriteInteger
 0001:0001A3E8       Mxplacemnt.TFormPlacement.EraseSections
 0001:0001A5B0       Mxplacemnt.TFormPlacement.SaveFormPlacement
 0001:0001A648       Mxplacemnt.TFormPlacement.RestoreFormPlacement
 0001:0001A7CC       Mxplacemnt.TWinMinMaxInfo.Assign
 0001:0001A80C       Mxplacemnt.TWinMinMaxInfo.GetMinMaxInfo
 0001:0001A860       Mxplacemnt.TWinMinMaxInfo.SetMinMaxInfo
 0001:0001A8DC       Mxplacemnt.TWinMinMaxInfo.DefaultMinMaxInfo
 0001:0001A918       Mxplacemnt.TFormStorage.Create
 0001:0001A984       Mxplacemnt.TFormStorage.Destroy
 0001:0001A9D0       Mxplacemnt.TFormStorage.SetNotification
 0001:0001AA08       Mxplacemnt.TFormStorage.SetStoredProps
 0001:0001AA20       Mxplacemnt.TFormStorage.SetStoredValues
 0001:0001AA30       Mxplacemnt.TFormStorage.GetStoredValue
 0001:0001AA4C       Mxplacemnt.TFormStorage.SetStoredValue
 0001:0001AAAC       Mxplacemnt.TFormStorage.Loaded
 0001:0001AAC8       Mxplacemnt.TFormStorage.WriteState
 0001:0001AAEC       Mxplacemnt.TFormStorage.Notification
 0001:0001AB50       Mxplacemnt.TFormStorage.SaveProperties
 0001:0001AC28       Mxplacemnt.TFormStorage.RestoreProperties
 0001:0001AD00       Mxplacemnt.TFormStorage.SavePlacement
 0001:0001AD20       Mxplacemnt.TFormStorage.RestorePlacement
 0001:0001AD44       Mxplacemnt.TIniLink.Destroy
 0001:0001AD84       Mxplacemnt.TIniLink.GetIniObject
 0001:0001AD98       Mxplacemnt.TIniLink.GetRootSection
 0001:0001ADDC       Mxplacemnt.TIniLink.SetStorage
 0001:0001AE04       Mxplacemnt.TIniLink.SaveToIni
 0001:0001AE18       Mxplacemnt.TIniLink.LoadFromIni
 0001:0001AE2C       Mxplacemnt.TStoredValue.Create
 0001:0001AEB0       Mxplacemnt.TStoredValue.Assign
 0001:0001AF08       Mxplacemnt.TStoredValue.GetDisplayName
 0001:0001AF30       Mxplacemnt.TStoredValue.SetDisplayName
 0001:0001AFD4       Mxplacemnt.TStoredValue.GetStoredValues
 0001:0001AFF8       Mxplacemnt.TStoredValue.Clear
 0001:0001B048       Mxplacemnt.TStoredValue.IsValueStored
 0001:0001B058       Mxplacemnt.TStoredValue.Save
 0001:0001B104       Mxplacemnt.TStoredValue.Restore
 0001:0001B1E8       Mxplacemnt.TStoredValues.Create
 0001:0001B224       Mxplacemnt.TStoredValues.IndexOf
 0001:0001B264       Mxplacemnt.TStoredValues.GetItem
 0001:0001B278       Mxplacemnt.TStoredValues.SetItem
 0001:0001B280       Mxplacemnt.TStoredValues.GetStoredValue
 0001:0001B2A8       Mxplacemnt.TStoredValues.SetStoredValue
 0001:0001B334       Mxplacemnt.TStoredValues.GetValue
 0001:0001B354       Mxplacemnt.TStoredValues.SetValue
 0001:0001B37C       Mxplacemnt.TStoredValues.SaveValues
 0001:0001B3A8       Mxplacemnt.TStoredValues.RestoreValues
 0001:0001B3D4       Mxplacemnt.Finalization
 0001:0001B404       Mxplacemnt.initialization
 0001:0001B40C       Mxapputils.GetDefaultSection
 0001:0001B594       Mxapputils.GetDefaultIniName
 0001:0001B620       Mxapputils.GetDefaultIniRegKey
 0001:0001B708       Mxapputils.GetDefaultIniData
 0001:0001B824       Mxapputils.FindForm
 0001:0001B878       Mxapputils.InternalFindShowForm
 0001:0001B980       Mxapputils.FindShowForm
 0001:0001B988       Mxapputils.ShowDialog
 0001:0001B9F0       Mxapputils.InstantiateForm
 0001:0001BA0C       Mxapputils.StrToIniStr
 0001:0001BB40       Mxapputils.IniStrToStr
 0001:0001BC5C       Mxapputils.IniReadString
 0001:0001BCCC       Mxapputils.IniWriteString
 0001:0001BDC4       Mxapputils.IniReadInteger
 0001:0001BE20       Mxapputils.IniWriteInteger
 0001:0001BE78       Mxapputils.IniReadBool
 0001:0001BED4       Mxapputils.IniWriteBool
 0001:0001BF2C       Mxapputils.IniEraseSection
 0001:0001BF6C       Mxapputils.IniDeleteKey
 0001:0001BFB4       Mxapputils.IniReadSections
 0001:0001BFF4       Mxapputils.InternalSaveMDIChildren
 0001:0001C178       Mxapputils.InternalRestoreMDIChildren
 0001:0001C2E0       Mxapputils.SaveMDIChildrenReg
 0001:0001C2E8       Mxapputils.RestoreMDIChildrenReg
 0001:0001C2F0       Mxapputils.SaveMDIChildren
 0001:0001C2F8       Mxapputils.RestoreMDIChildren
 0001:0001C300       Mxapputils.InternalSaveGridLayout
 0001:0001C39C       Mxapputils.InternalRestoreGridLayout
 0001:0001C444       Mxapputils.RestoreGridLayoutReg
 0001:0001C498       Mxapputils.SaveGridLayoutReg
 0001:0001C4EC       Mxapputils.RestoreGridLayout
 0001:0001C540       Mxapputils.SaveGridLayout
 0001:0001C594       Mxapputils.CrtResString
 0001:0001C5E4       Mxapputils.ReadPosStr
 0001:0001C66C       Mxapputils.WritePosStr
 0001:0001C6EC       Mxapputils.InternalWriteFormPlacement
 0001:0001C8E4       Mxapputils.WriteFormPlacementReg
 0001:0001C8EC       Mxapputils.WriteFormPlacement
 0001:0001C8F4       Mxapputils.SaveFormPlacement
 0001:0001CBB8       Mxapputils.InternalReadFormPlacement
 0001:0001D048       Mxapputils.ReadFormPlacementReg
 0001:0001D060       Mxapputils.ReadFormPlacement
 0001:0001D078       Mxapputils.RestoreFormPlacement
 0001:0001D144       Mxapputils.GetUniqueFileNameInDir
 0001:0001D1F0       Mxapputils.AppBroadcast
 0001:0001D23C       Mxapputils.AppTaskbarIcons
 0001:0001D28C       Mxapputils.Finalization
 0001:0001D2C8       Mxapputils.initialization
 0001:0001D2D0       Mxmaxmin.SwapInt
 0001:0001D2DC       Mxmaxmin.SwapInt64
 0001:0001D304       Mxmaxmin.SwapLong
 0001:0001D310       Mxmaxmin.Max
 0001:0001D318       Mxmaxmin.Min
 0001:0001D320       Mxmaxmin.MaxInteger
 0001:0001D33C       Mxmaxmin.MinInteger
 0001:0001D358       Mxmaxmin.MaxInt64
 0001:0001D3A4       Mxmaxmin.MinInt64
 0001:0001D3F0       Mxmaxmin.MaxFloat
 0001:0001D440       Mxmaxmin.MinFloat
 0001:0001D490       Mxmaxmin.MaxDateTime
 0001:0001D4CC       Mxmaxmin.MinDateTime
 0001:0001D508       Mxmaxmin.MaxOf
 0001:0001D540       Mxmaxmin.MinOf
 0001:0001D578       Mxmaxmin.Finalization
 0001:0001D5A8       Mxmaxmin.initialization
 0001:0001D708       Mxvclutils.ResourceNotFound
 0001:0001D7B4       Mxvclutils.MakeModuleBitmap
 0001:0001D898       Mxvclutils.MakeBitmap
 0001:0001D8A8       Mxvclutils.MakeBitmapID
 0001:0001D8B8       Mxvclutils.AssignBitmapCell
 0001:0001DB6C       Mxvclutils.CopyParentImage
 0001:0001DE58       Mxvclutils.StretchBltTransparent
 0001:0001E174       Mxvclutils.DrawTransparentBitmapRect
 0001:0001E208       Mxvclutils.DrawTransparentBitmap
 0001:0001E260       Mxvclutils.StretchBitmapTransparent
 0001:0001E420       Mxvclutils.StretchBitmapRectTransparent
 0001:0001E464       Mxvclutils.DrawBitmapRectTransparent
 0001:0001E4B0       Mxvclutils.DrawBitmapTransparent
 0001:0001E500       Mxvclutils.ChangeBitmapColor
 0001:0001E5D4       Mxvclutils.CreateDisabledBitmapEx
 0001:0001E83C       Mxvclutils.CreateDisabledBitmap
 0001:0001E854       Mxvclutils.ImageListDrawDisabled
 0001:0001EA08       Mxvclutils.CreateTwoColorsBrushPattern
 0001:0001EAD0       Mxvclutils.MakeIcon
 0001:0001EAE0       Mxvclutils.MakeIconID
 0001:0001EAF0       Mxvclutils.MakeModuleIcon
 0001:0001EB30       Mxvclutils.CreateBitmapFromIcon
 0001:0001EC04       Mxvclutils.CreateIconFromBitmap
 0001:0001ECD8       Mxvclutils.DialogUnitsToPixelsX
 0001:0001ECF0       Mxvclutils.DialogUnitsToPixelsY
 0001:0001ED0C       Mxvclutils.PixelsToDialogUnitsX
 0001:0001ED28       Mxvclutils.PixelsToDialogUnitsY
 0001:0001EE88       Mxvclutils.LoadDLL
 0001:0001EEC0       Mxvclutils.RegisterServer
 0001:0001EF38       Mxvclutils.Beep
 0001:0001EF40       Mxvclutils.FreeUnusedOle
 0001:0001EF60       Mxvclutils.NotImplemented
 0001:0001EFCC       Mxvclutils.PaintInverseRect
 0001:0001F038       Mxvclutils.DrawInvertFrame
 0001:0001F0AC       Mxvclutils.WidthOf
 0001:0001F0C8       Mxvclutils.HeightOf
 0001:0001F0E4       Mxvclutils.PointInRect
 0001:0001F108       Mxvclutils.PointInPolyRgn
 0001:0001F16C       Mxvclutils.PaletteColor
 0001:0001F180       Mxvclutils.KillMessage
 0001:0001F1BC       Mxvclutils.CreateRotatedFont
 0001:0001F32C       Mxvclutils.Delay
 0001:0001F358       Mxvclutils.PaletteEntries
 0001:0001F368       Mxvclutils.CenterControl
 0001:0001F464       Mxvclutils.FitRectToScreen
 0001:0001F4D4       Mxvclutils.CenterWindow
 0001:0001F558       Mxvclutils.MergeForm
 0001:0001F62C       Mxvclutils.ShowMDIClientEdge
 0001:0001F678       Mxvclutils.MakeVariant
 0001:0001F6B4       Mxvclutils.ShadeRect
 0001:0001F788       Mxvclutils.ScreenWorkArea
 0001:0001F7C4       Mxvclutils.WindowClassName
 0001:0001F7F4       Mxvclutils.GetAnimation
 0001:0001F824       Mxvclutils.SetAnimation
 0001:0001F84C       Mxvclutils.ShowWinNoAnimate
 0001:0001F87C       Mxvclutils.SwitchToWindow
 0001:0001F8C8       Mxvclutils.GetWindowParent
 0001:0001F8D4       Mxvclutils.ActivateWindow
 0001:0001F8F0       Mxvclutils.FindPrevInstance
 0001:0001F9B8       Mxvclutils.WindowsEnum
 0001:0001FA30       Mxvclutils.ActivatePrevInstance
 0001:0001FB60       Mxvclutils.MsgBox
 0001:0001FBCC       Mxvclutils.MsgDlg
 0001:0001FBF4       Mxvclutils.GradientFillRect
 0001:0001FF40       Mxvclutils.MinimizeText
 0001:0001FFF8       Mxvclutils.GetAveCharSize
 0001:0002004C       Mxvclutils.AllocMemo
 0001:0002006C       Mxvclutils.ReallocMemo
 0001:00020084       Mxvclutils.FreeMemo
 0001:0002009C       Mxvclutils.GetMemoSize
 0001:000200BC       Mxvclutils.CompareMem
 0001:000200DC       Mxvclutils.HugeInc
 0001:000200E4       Mxvclutils.HugeDec
 0001:000200EC       Mxvclutils.HugeOffset
 0001:000200F4       Mxvclutils.HMemCpy
 0001:000200FC       Mxvclutils.HugeMove
 0001:00020124       Mxvclutils.GetEnvVar
 0001:0002016C       Mxvclutils.GetParamStr
 0001:000201D8       Mxvclutils.ParamCountFromCommandLine
 0001:0002022C       Mxvclutils.ParamStrFromCommandLine
 0001:00020250       Mxvclutils.SplitCommandLine
 0001:00020388       Mxvclutils.AnsiUpperFirstChar
 0001:00020458       Mxvclutils.StrPAlloc
 0001:00020474       Mxvclutils.StringToPChar
 0001:00020480       Mxvclutils.DropT
 0001:000204BC       Mxvclutils.LoadAniCursor
 0001:00020688       Mxvclutils.DefineCursor
 0001:00020768       Mxvclutils.StartWait
 0001:0002079C       Mxvclutils.StopWait
 0001:000207C8       Mxvclutils.UsesBitmap
 0001:000207E4       Mxvclutils.ReleaseBitmap
 0001:00020800       Mxvclutils.WriteText
 0001:00020A68       Mxvclutils.DrawCellTextEx
 0001:00020B08       Mxvclutils.DrawCellText
 0001:00020B38       Mxvclutils.DrawCellTextEx
 0001:00020BD4       Mxvclutils.DrawCellText
 0001:00020C00       Mxvclutils.DrawCellBitmap
 0001:00020C64       Mxvclutils.TScreenCanvas.Destroy
 0001:00020C90       Mxvclutils.TScreenCanvas.CreateHandle
 0001:00020CB0       Mxvclutils.TScreenCanvas.FreeHandle
 0001:00020CD4       Mxvclutils.TScreenCanvas.SetOrigin
 0001:00020CFC       Mxvclutils.RaiseWin32Error
 0001:00020D90       Mxvclutils.CheckWin32
 0001:00020DA8       Mxvclutils.ResStr
 0001:00020DBC       Mxvclutils.CheckTaskWindow
 0001:00020DDC       Mxvclutils.IsForegroundTask
 0001:00020E08       Mxvclutils.GetWindowsVersion
 0001:00020F84       Mxvclutils.Finalization
 0001:00020FBC       Mxvclutils.initialization
 0001:00020FC4       Mxconst.Finalization
 0001:00020FF4       Mxconst.initialization
 0001:0002105C       Mxstrutils.StrToOem
 0001:000210A0       Mxstrutils.OemToAnsiStr
 0001:000210E4       Mxstrutils.IsEmptyStr
 0001:0002111C       Mxstrutils.ReplaceStr
 0001:000211E0       Mxstrutils.DelSpace
 0001:000211F4       Mxstrutils.DelChars
 0001:00021234       Mxstrutils.DelBSpace
 0001:00021268       Mxstrutils.DelESpace
 0001:0002129C       Mxstrutils.DelRSpace
 0001:000212EC       Mxstrutils.DelSpace1
 0001:00021334       Mxstrutils.Tab2Space
 0001:000213D4       Mxstrutils.MakeStr
 0001:0002140C       Mxstrutils.MS
 0001:00021424       Mxstrutils.NPos
 0001:000214C0       Mxstrutils.AddChar
 0001:00021544       Mxstrutils.AddCharR
 0001:000215C8       Mxstrutils.LeftStr
 0001:000215E4       Mxstrutils.RightStr
 0001:00021600       Mxstrutils.CompStr
 0001:0002163C       Mxstrutils.CompText
 0001:00021678       Mxstrutils.Copy2Symb
 0001:000216EC       Mxstrutils.Copy2SymbDel
 0001:00021774       Mxstrutils.Copy2Space
 0001:00021788       Mxstrutils.Copy2SpaceDel
 0001:0002179C       Mxstrutils.AnsiProperCase
 0001:00021868       Mxstrutils.WordCount
 0001:000218C0       Mxstrutils.WordPosition
 0001:00021948       Mxstrutils.ExtractWord
 0001:000219BC       Mxstrutils.ExtractWordPos
 0001:00021A34       Mxstrutils.ExtractDelimited
 0001:00021AC0       Mxstrutils.ExtractSubstr
 0001:00021B30       Mxstrutils.IsWordPresent
 0001:00021BBC       Mxstrutils.QuotedString
 0001:00021BD4       Mxstrutils.ExtractQuotedString
 0001:00021C0C       Mxstrutils.Numb2USA
 0001:00021C6C       Mxstrutils.CenterStr
 0001:00021D18       Mxstrutils.Dec2Hex
 0001:00021D34       Mxstrutils.D2H
 0001:00021D50       Mxstrutils.Hex2Dec
 0001:00021DCC       Mxstrutils.H2D
 0001:00021DD4       Mxstrutils.Dec2Numb
 0001:00021EC4       Mxstrutils.Numb2Dec
 0001:00021F88       Mxstrutils.RomanToInt
 0001:00022090       Mxstrutils.IntToRoman
 0001:00022278       Mxstrutils.IntToBin
 0001:0002231C       Mxstrutils.FindPart
 0001:000223C8       SearchNext
 0001:00022400       Mxstrutils.IsWild
 0001:0002269C       Mxstrutils.XorString
 0001:000226F0       Mxstrutils.XorEncode
 0001:000227C4       Mxstrutils.XorDecode
 0001:000228C0       Mxstrutils.GetCmdLineArg
 0001:000229C4       Mxstrutils.Finalization
 0001:000229F4       Mxstrutils.initialization
 0001:000229FC       Mxclipicon.CreateBitmapFromIcon
 0001:00022AFC       Mxclipicon.CopyIconToClipboard
 0001:00022CB8       Mxclipicon.AssignClipboardIcon
 0001:00022DC8       Mxclipicon.CreateIconFromClipboard
 0001:00022E38       Mxclipicon.OutOfResources
 0001:00022EA0       Mxclipicon.WidthBytes
 0001:00022EB4       Mxclipicon.GetDInColors
 0001:00022ED4       Mxclipicon.DupBits
 0001:00023010       Mxclipicon.TwoBitsFromDIB
 0001:00023200       Mxclipicon.ReadIcon
 0001:000234CC       Mxclipicon.GetIconSize
 0001:00023598       Mxclipicon.CreateRealSizeIcon
 0001:00023650       Mxclipicon.DrawRealSizeIcon
 0001:000236CC       Mxclipicon.Finalization
 0001:000236FC       Mxclipicon.initialization
 0001:0002373C       Mxboxprocs.BoxItems
 0001:00023778       Mxboxprocs.BoxGetSelected
 0001:000237BC       Mxboxprocs.BoxSetSelected
 0001:00023804       Mxboxprocs.BoxGetItemIndex
 0001:00023844       Mxboxprocs.BoxSetItemIndex
 0001:00023888       Mxboxprocs.BoxMultiSelect
 0001:000238C4       Mxboxprocs.BoxSelCount
 0001:00023904       Mxboxprocs.BoxItemAtPos
 0001:0002395C       Mxboxprocs.BoxItemRect
 0001:000239B4       Mxboxprocs.BoxMoveSelected
 0001:00023A64       Mxboxprocs.BoxGetFirstSelection
 0001:00023AA8       Mxboxprocs.BoxSetItem
 0001:00023B18       Mxboxprocs.BoxMoveSelectedItems
 0001:00023C84       Mxboxprocs.BoxMoveAllItems
 0001:00023D68       Mxboxprocs.BoxCanDropItem
 0001:00023DDC       DrawItemFocusRect
 0001:00023E60       Mxboxprocs.BoxDragOver
 0001:00023F20       Mxboxprocs.BoxMoveFocusedItem
 0001:00023F6C       Mxboxprocs.Finalization
 0001:00023F9C       Mxboxprocs.initialization
 0001:00023FA4       Mxlconst.Finalization
 0001:00023FD4       Mxlconst.initialization
 0001:000241D4       Mxprops.GetPropType
 0001:000241DC       Mxprops.TPropInfoList.Create
 0001:00024268       Mxprops.TPropInfoList.Destroy
 0001:00024290       Mxprops.TPropInfoList.Contains
 0001:00024338       Mxprops.TPropInfoList.Find
 0001:000243C0       Mxprops.TPropInfoList.Delete
 0001:000243F0       Mxprops.TPropInfoList.Get
 0001:000243F8       Mxprops.TPropInfoList.Intersect
 0001:0002442C       Mxprops.CreateStoredItem
 0001:00024468       Mxprops.ParseStoredItem
 0001:00024560       Mxprops.ReplaceComponentName
 0001:000245CC       Mxprops.UpdateStoredList
 0001:000246F4       Mxprops.FindGlobalComponent
 0001:00024774       Mxprops.TPropsStorage.GetItemName
 0001:00024790       Mxprops.TPropsStorage.LoadAnyProperty
 0001:00024A60       Mxprops.TPropsStorage.StoreAnyProperty
 0001:00024BF0       Mxprops.TPropsStorage.StoreIntegerProperty
 0001:00024C10       Mxprops.TPropsStorage.StoreCharProperty
 0001:00024C30       Mxprops.TPropsStorage.StoreEnumProperty
 0001:00024C58       Mxprops.TPropsStorage.StoreFloatProperty
 0001:00024D04       Mxprops.TPropsStorage.StoreStringProperty
 0001:00024D20       Mxprops.TPropsStorage.StoreLStringProperty
 0001:00024D3C       Mxprops.TPropsStorage.StoreWCharProperty
 0001:00024D5C       Mxprops.TPropsStorage.StoreVariantProperty
 0001:00024DBC       Mxprops.TPropsStorage.StoreInt64Property
 0001:00024DDC       Mxprops.TPropsStorage.StoreSetProperty
 0001:00024EC0       Mxprops.TPropsStorage.StoreStringsProperty
 0001:0002504C       Mxprops.TPropsStorage.StoreComponentProperty
 0001:000251A8       StoreObjectProps
 0001:0002527C       Mxprops.TPropsStorage.StoreClassProperty
 0001:000255AC       Mxprops.TPropsStorage.LoadIntegerProperty
 0001:000255D0       Mxprops.TPropsStorage.LoadCharProperty
 0001:000255E0       Mxprops.TPropsStorage.LoadEnumProperty
 0001:00025678       Mxprops.TPropsStorage.LoadFloatProperty
 0001:00025708       Mxprops.TPropsStorage.LoadInt64Property
 0001:0002572C       Mxprops.TPropsStorage.LoadLStringProperty
 0001:00025738       Mxprops.TPropsStorage.LoadWCharProperty
 0001:00025748       Mxprops.TPropsStorage.LoadVariantProperty
 0001:000257A8       Mxprops.TPropsStorage.LoadStringProperty
 0001:000257B4       Mxprops.TPropsStorage.LoadSetProperty
 0001:000258BC       Mxprops.TPropsStorage.LoadStringsProperty
 0001:00025A88       Mxprops.TPropsStorage.LoadComponentProperty
 0001:00025BCC       LoadObjectProps
 0001:00025C8C       Mxprops.TPropsStorage.LoadClassProperty
 0001:00025FC4       Mxprops.TPropsStorage.StoreProperties
 0001:0002608C       Mxprops.TPropsStorage.LoadProperties
 0001:00026154       Mxprops.TPropsStorage.CreateInfoList
 0001:00026250       Mxprops.TPropsStorage.FreeInfoLists
 0001:00026284       Mxprops.TPropsStorage.LoadObjectsProps
 0001:000263D4       Mxprops.TPropsStorage.StoreObjectsProps
 0001:00026524       Mxprops.TPropsStorage.CreateStorage
 0001:00026534       Mxprops.TPropsStorage.ReadString
 0001:00026570       Mxprops.TPropsStorage.WriteString
 0001:0002658C       Mxprops.TPropsStorage.EraseSection
 0001:000265A0       Mxprops.Finalization
 0001:000265DC       Mxprops.initialization
 0001:00026A04       Mxhook.GetHookList
 0001:00026A24       Mxhook.DropHookList
 0001:00026A38       Mxhook.TControlHook.Create
 0001:00026A94       Mxhook.TControlHook.Destroy
 0001:00026B1C       Mxhook.TControlHook.AddHook
 0001:00026B54       Mxhook.TControlHook.RemoveHook
 0001:00026B78       Mxhook.TControlHook.NotifyHooks
 0001:00026C74       Mxhook.TControlHook.HookControl
 0001:00026CCC       Mxhook.TControlHook.UnhookControl
 0001:00026D18       Mxhook.TControlHook.HookWndProc
 0001:00026E50       Mxhook.TControlHook.SetWinControl
 0001:00026E78       Mxhook.THookList.Create
 0001:00026EBC       Mxhook.THookList.Destroy
 0001:00026F00       Mxhook.THookList.WndProc
 0001:00026FB4       Mxhook.THookList.FindControlHook
 0001:00026FF0       Mxhook.THookList.GetControlHook
 0001:00027068       Mxhook.TRxWindowHook.Create
 0001:000270A4       Mxhook.TRxWindowHook.Destroy
 0001:000270DC       Mxhook.TRxWindowHook.SetActive
 0001:000270F4       Mxhook.TRxWindowHook.GetHookHandle
 0001:0002710C       Mxhook.TRxWindowHook.HookControl
 0001:00027138       Mxhook.TRxWindowHook.DoUnhookControl
 0001:00027158       Mxhook.TRxWindowHook.UnhookControl
 0001:00027168       Mxhook.TRxWindowHook.NotIsForm
 0001:00027194       Mxhook.TRxWindowHook.IsForm
 0001:000271CC       Mxhook.TRxWindowHook.ReadForm
 0001:00027200       Mxhook.TRxWindowHook.WriteForm
 0001:0002721C       DoWrite
 0001:00027260       Mxhook.TRxWindowHook.DefineProperties
 0001:000272B8       Mxhook.TRxWindowHook.GetWinControl
 0001:000272C8       Mxhook.TRxWindowHook.DoAfterMessage
 0001:000272E0       Mxhook.TRxWindowHook.DoBeforeMessage
 0001:000272F8       Mxhook.TRxWindowHook.Notification
 0001:00027344       Mxhook.TRxWindowHook.SetWinControl
 0001:000273B0       Mxhook.GetVirtualMethodAddress
 0001:000273BC       Mxhook.SetVirtualMethodAddress
 0001:00027434       Mxhook.FindVirtualMethodIndex
 0001:00027454       Mxhook.Finalization
 0001:0002748C       Mxhook.initialization
 0001:00027750       Mxfileutil.ExplorerHook
 0001:000277B4       Mxfileutil.TBrowseFolderDlg.Create
 0001:00027814       Mxfileutil.TBrowseFolderDlg.Destroy
 0001:00027848       Mxfileutil.TBrowseFolderDlg.DoInitialized
 0001:00027998       Mxfileutil.TBrowseFolderDlg.DoSelChanged
 0001:00027A5C       Mxfileutil.TBrowseFolderDlg.SetSelPath
 0001:00027A84       Mxfileutil.TBrowseFolderDlg.SetOkEnable
 0001:00027AA0       Mxfileutil.TBrowseFolderDlg.DefaultHandler
 0001:00027AD8       Mxfileutil.TBrowseFolderDlg.WndProc
 0001:00027AE0       Mxfileutil.TBrowseFolderDlg.WMCommand
 0001:00027B14       Mxfileutil.TBrowseFolderDlg.WMNCDestroy
 0001:00027B28       Mxfileutil.TBrowseFolderDlg.Execute
 0001:00027D04       Mxfileutil.TBrowseFolderDlg.TaskModalDialog
 0001:00027D9C       Mxfileutil.BrowseDirectory
 0001:00027E5C       Mxfileutil.BrowseComputer
 0001:000281B8       Mxfileutil.TRxFileOperator.Create
 0001:000281FC       Mxfileutil.TRxFileOperator.TaskModalDialog
 0001:00028260       AllocFileStr
 0001:000282B0       Mxfileutil.TRxFileOperator.Execute
 0001:000283C8       Mxfileutil.NormalDir
 0001:0002843C       Mxfileutil.RemoveBackSlash
 0001:0002849C       Mxfileutil.DirExists
 0001:000284FC       Mxfileutil.ForceDirectories
 0001:000285CC       Mxfileutil.CopyMoveFileShell
 0001:0002870C       Mxfileutil.CopyFile
 0001:00028718       Mxfileutil.CopyFileEx
 0001:00028A40       Mxfileutil.MoveFile
 0001:00028AC4       Mxfileutil.MoveFileEx
 0001:00028AE4       Mxfileutil.GetFileSize
 0001:00028B48       Mxfileutil.FileDateTime
 0001:00028B78       Mxfileutil.HasAttr
 0001:00028B94       Mxfileutil.DeleteFiles
 0001:00028CD0       Mxfileutil.DeleteFilesEx
 0001:00028D04       Mxfileutil.ClearDir
 0001:00028F40       Mxfileutil.GetTempDir
 0001:00028F68       Mxfileutil.GetWindowsDir
 0001:00028F94       Mxfileutil.GetSystemDir
 0001:00028FC0       HasAny
 0001:00029044       Mxfileutil.ValidFileName
 0001:000290D8       Mxfileutil.FileLock
 0001:00029100       Mxfileutil.FileUnlock
 0001:00029128       Mxfileutil.FileLock
 0001:00029158       Mxfileutil.FileUnlock
 0001:00029188       Mxfileutil.ShortToLongFileName
 0001:000291EC       Mxfileutil.LongToShortFileName
 0001:00029250       Mxfileutil.ShortToLongPath
 0001:0002931C       Mxfileutil.LongToShortPath
 0001:000293E8       Mxfileutil.CreateFileLink
 0001:000295D4       Mxfileutil.DeleteFileLink
 0001:00029744       Mxfileutil.Finalization
 0001:00029774       Mxfileutil.initialization
 0001:0002977C       Mxcconst.Finalization
 0001:000297AC       Mxcconst.initialization
 0001:0002B9D0       Mxfilectrl.SlashSep
 0001:0002BA18       Mxfilectrl.TPathLabel.Create
 0001:0002BA68       Mxfilectrl.TPathLabel.Paint
 0001:0002BB58       Mxfilectrl.CutFirstDirectory
 0001:0002BC14       Mxfilectrl.MinimizeName
 0001:0002BD5C       Mxfilectrl.VolumeID
 0001:0002BEF8       Mxfilectrl.NetworkVolume
 0001:0002BFD8       Mxfilectrl.ProcessPath
 0001:0002C290       Mxfilectrl.GetItemHeight
 0001:0002C2D0       Mxfilectrl.TDriveComboBox.Create
 0001:0002C358       Mxfilectrl.TDriveComboBox.Destroy
 0001:0002C3B4       AddDrive
 0001:0002C448       Mxfilectrl.TDriveComboBox.BuildList
 0001:0002C624       Mxfilectrl.TDriveComboBox.SetDrive
 0001:0002C764       Mxfilectrl.TDriveComboBox.SetTextCase
 0001:0002C78C       Mxfilectrl.TDriveComboBox.SetDirListBox
 0001:0002C7BC       Mxfilectrl.TDriveComboBox.CreateWnd
 0001:0002C7E0       Mxfilectrl.TDriveComboBox.DrawItem
 0001:0002C928       Mxfilectrl.TDriveComboBox.Click
 0001:0002C99C       Mxfilectrl.TDriveComboBox.CMFontChanged
 0001:0002C9B8       Mxfilectrl.TDriveComboBox.ResetItemHeight
 0001:0002C9F4       Mxfilectrl.TDriveComboBox.ReadBitmaps
 0001:0002CB00       Mxfilectrl.TDriveComboBox.Notification
 0001:0002CB30       Mxfilectrl.DirLevel
 0001:0002CB5C       Mxfilectrl.TDirectoryListBox.Create
 0001:0002CBD0       Mxfilectrl.TDirectoryListBox.Destroy
 0001:0002CC18       Mxfilectrl.TDirectoryListBox.DriveChange
 0001:0002CCE4       Mxfilectrl.TDirectoryListBox.SetFileListBox
 0001:0002CD14       Mxfilectrl.TDirectoryListBox.SetDirLabel
 0001:0002CD34       Mxfilectrl.TDirectoryListBox.SetDir
 0001:0002CD8C       Mxfilectrl.TDirectoryListBox.OpenCurrent
 0001:0002CDE8       Mxfilectrl.TDirectoryListBox.Update
 0001:0002CE04       Mxfilectrl.TDirectoryListBox.DisplayCase
 0001:0002CE34       Mxfilectrl.TDirectoryListBox.FileCompareText
 0001:0002CE54       Mxfilectrl.TDirectoryListBox.ReadDirectoryNames
 0001:0002CF98       Mxfilectrl.TDirectoryListBox.BuildList
 0001:0002D29C       Mxfilectrl.TDirectoryListBox.ReadBitmaps
 0001:0002D35C       Mxfilectrl.TDirectoryListBox.DblClick
 0001:0002D370       Mxfilectrl.TDirectoryListBox.Change
 0001:0002D3AC       Mxfilectrl.TDirectoryListBox.DrawItem
 0001:0002D524       Mxfilectrl.TDirectoryListBox.GetItemPath
 0001:0002D6C4       Mxfilectrl.TDirectoryListBox.CreateWnd
 0001:0002D6F4       Mxfilectrl.TDirectoryListBox.CMFontChanged
 0001:0002D708       Mxfilectrl.TDirectoryListBox.ResetItemHeight
 0001:0002D740       Mxfilectrl.TDirectoryListBox.GetDrive
 0001:0002D74C       Mxfilectrl.TDirectoryListBox.SetDrive
 0001:0002D7DC       Mxfilectrl.TDirectoryListBox.SetDirectory
 0001:0002D8D4       Mxfilectrl.TDirectoryListBox.KeyPress
 0001:0002D8F8       Mxfilectrl.TDirectoryListBox.Notification
 0001:0002D94C       Mxfilectrl.TDirectoryListBox.SetDirLabelCaption
 0001:0002D9C4       Mxfilectrl.TFileListBox.Create
 0001:0002DA78       Mxfilectrl.TFileListBox.Destroy
 0001:0002DAC0       Mxfilectrl.TFileListBox.Update
 0001:0002DACC       Mxfilectrl.TFileListBox.CreateWnd
 0001:0002DAE4       Mxfilectrl.TFileListBox.IsMaskStored
 0001:0002DB08       Mxfilectrl.TFileListBox.GetDrive
 0001:0002DB14       Mxfilectrl.TFileListBox.ReadBitmaps
 0001:0002DBCC       Mxfilectrl.TFileListBox.ReadFileNames
 0001:0002DF18       Mxfilectrl.TFileListBox.Click
 0001:0002DF40       Mxfilectrl.TFileListBox.Change
 0001:0002DFFC       Mxfilectrl.TFileListBox.SetShowGlyphs
 0001:0002E044       Mxfilectrl.TFileListBox.GetFileName
 0001:0002E094       Mxfilectrl.TFileListBox.SetFileName
 0001:0002E11C       Mxfilectrl.TFileListBox.SetFileEdit
 0001:0002E1AC       Mxfilectrl.TFileListBox.DrawItem
 0001:0002E2F0       Mxfilectrl.TFileListBox.SetDrive
 0001:0002E380       Mxfilectrl.TFileListBox.SetDirectory
 0001:0002E3DC       Mxfilectrl.TFileListBox.SetFileType
 0001:0002E404       Mxfilectrl.TFileListBox.SetMask
 0001:0002E434       Mxfilectrl.TFileListBox.CMFontChanged
 0001:0002E448       Mxfilectrl.TFileListBox.ResetItemHeight
 0001:0002E48C       Mxfilectrl.TFileListBox.ApplyFilePath
 0001:0002E668       Mxfilectrl.TFileListBox.GetFilePath
 0001:0002E6DC       Mxfilectrl.TFileListBox.Notification
 0001:0002E730       Mxfilectrl.TFilterComboBox.Create
 0001:0002E794       Mxfilectrl.TFilterComboBox.Destroy
 0001:0002E7C4       Mxfilectrl.TFilterComboBox.CreateWnd
 0001:0002E7D8       Mxfilectrl.TFilterComboBox.IsFilterStored
 0001:0002E834       Mxfilectrl.TFilterComboBox.SetFilter
 0001:0002E878       Mxfilectrl.TFilterComboBox.SetFileListBox
 0001:0002E8B0       Mxfilectrl.TFilterComboBox.Click
 0001:0002E8CC       Mxfilectrl.TFilterComboBox.GetMask
 0001:0002E940       Mxfilectrl.TFilterComboBox.BuildList
 0001:0002EA78       Mxfilectrl.TFilterComboBox.Notification
 0001:0002EAA8       Mxfilectrl.TFilterComboBox.Change
 0001:0002EB08       Mxfilectrl.TSelectDirDlg.Create
 0001:0002F0D8       Mxfilectrl.TSelectDirDlg.HelpButtonClick
 0001:0002F0F0       Mxfilectrl.TSelectDirDlg.DirListChange
 0001:0002F180       Mxfilectrl.TSelectDirDlg.FormCreate
 0001:0002F238       Mxfilectrl.TSelectDirDlg.DriveListChange
 0001:0002F250       Mxfilectrl.TSelectDirDlg.SetAllowCreate
 0001:0002F288       Mxfilectrl.TSelectDirDlg.SetDirectory
 0001:0002F3D8       Mxfilectrl.TSelectDirDlg.GetDirectory
 0001:0002F408       Mxfilectrl.TSelectDirDlg.NetClick
 0001:0002F428       Mxfilectrl.TSelectDirDlg.OKClick
 0001:0002F4C0       Mxfilectrl.SelectDirectory
 0001:0002F6A8       Mxfilectrl.SelectDirectory
 0001:0002F860       Mxfilectrl.DirectoryExists
 0001:0002F884       Mxfilectrl.ForceDirectories
 0001:0002F968       Mxfilectrl.Finalization
 0001:0002F998       Mxfilectrl.initialization
 0001:0002FA3C       Mxdateutil.IsLeapYear
 0001:0002FA78       Mxdateutil.DaysPerMonth
 0001:0002FAA0       Mxdateutil.FirstDayOfNextMonth
 0001:0002FB04       Mxdateutil.FirstDayOfPrevMonth
 0001:0002FB68       Mxdateutil.LastDayOfPrevMonth
 0001:0002FBC4       Mxdateutil.ExtractDay
 0001:0002FBE8       Mxdateutil.ExtractMonth
 0001:0002FC0C       Mxdateutil.ExtractYear
 0001:0002FC30       Mxdateutil.IncDate
 0001:0002FCDC       Mxdateutil.DateDiff
 0001:0002FDB4       Mxdateutil.IncDay
 0001:0002FDD0       Mxdateutil.IncMonth
 0001:0002FDF4       Mxdateutil.IncYear
 0001:0002FE18       Mxdateutil.MonthsBetween
 0001:0002FED8       Mxdateutil.IsValidDate
 0001:0002FF1C       Mxdateutil.ValidDate
 0001:0002FF7C       Mxdateutil.DaysInPeriod
 0001:0002FFCC       Mxdateutil.DaysBetween
 0001:0002FFF0       Mxdateutil.IncTime
 0001:00030078       Mxdateutil.IncHour
 0001:0003009C       Mxdateutil.IncMinute
 0001:000300C4       Mxdateutil.IncSecond
 0001:000300EC       Mxdateutil.IncMSec
 0001:00030114       Mxdateutil.CutTime
 0001:00030138       Mxdateutil.CurrentYear
 0001:0003014C       Mxdateutil.ScanBlanks
 0001:00030170       Mxdateutil.ScanNumber
 0001:000301FC       Mxdateutil.ScanChar
 0001:00030234       Mxdateutil.ScanToNumber
 0001:00030270       Mxdateutil.GetDateOrder
 0001:000302BC       Mxdateutil.ExpandYear
 0001:000302FC       Mxdateutil.ScanDate
 0001:000305B8       Mxdateutil.MonthFromName
 0001:0003066C       Mxdateutil.ExtractMask
 0001:000307E4       Mxdateutil.ScanDateStr
 0001:0003089C       Mxdateutil.InternalStrToDate
 0001:00030920       Mxdateutil.StrToDateFmt
 0001:000309A4       Mxdateutil.StrToDateDef
 0001:000309E4       Mxdateutil.StrToDateFmtDef
 0001:00030A20       Mxdateutil.DefDateFormat
 0001:00030B24       Mxdateutil.DefDateMask
 0001:00030C24       Mxdateutil.FormatLongDate
 0001:00030CCC       Mxdateutil.FormatLongDateTime
 0001:00030D60       Mxdateutil.Finalization
 0001:00030D90       Mxdateutil.initialization
 0001:00030E98       Mxprgrss.TProgressList.Create
 0001:00030F18       Mxprgrss.TProgressList.Destroy
 0001:00030F64       Mxprgrss.TProgressList.Add
 0001:0003100C       Mxprgrss.TProgressList.FindClass
 0001:00031048       Mxprgrss.TProgressList.Remove
 0001:00031094       Mxprgrss.TProgressList.SetControlProperty
 0001:0003118C       Mxprgrss.GetProgressList
 0001:000311AC       Mxprgrss.SupportsProgressControl
 0001:000311D4       Mxprgrss.RegisterProgressControl
 0001:000311FC       Mxprgrss.UnRegisterProgressControl
 0001:00031214       Mxprgrss.SetProgressMax
 0001:0003122C       Mxprgrss.SetProgressMin
 0001:00031244       Mxprgrss.SetProgressValue
 0001:0003125C       Mxprgrss.Finalization
 0001:00031298       Mxprgrss.initialization

Line numbers for editor(editor.cpp) segment .text

    12 0001:00000A70    14 0001:00000A73    15 0001:00000A78

Line numbers for mxshortcut(mxshortcut.pas) segment .text

    81 0001:00001800    82 0001:0000180B    83 0001:0000180D    84 0001:00001813
    85 0001:00001825    86 0001:0000182F    87 0001:00001839    88 0001:00001843
   105 0001:00001914   106 0001:00001924   107 0001:0000192B   108 0001:0000193B
   110 0001:0000193F   111 0001:00001951   113 0001:00001963   118 0001:00001968
   119 0001:00001987   120 0001:00001A03   121 0001:00001A1B   122 0001:00001A2E
   123 0001:00001A41   124 0001:00001A5C   125 0001:00001A74   126 0001:00001A88
   127 0001:00001A9C   128 0001:00001AB0   129 0001:00001AD1   131 0001:00001ADD
   133 0001:00001AF7   134 0001:00001AFE   135 0001:00001B11   136 0001:00001B24
   137 0001:00001B37   138 0001:00001B63   141 0001:00001B88   142 0001:00001BB4
   143 0001:00001BBD   144 0001:00001BC6   145 0001:00001BCF   146 0001:00001BD8
   147 0001:00001BEC   148 0001:00001C03   149 0001:00001C10   150 0001:00001C4F
   153 0001:00001C5C   154 0001:00001C67   155 0001:00001C7E   158 0001:00001C84
   159 0001:00001C9B   161 0001:00001CA4   162 0001:00001CAD   164 0001:00001CDE
   169 0001:00001CE4   170 0001:00001CEE   171 0001:00001CFA   172 0001:00001D05
   173 0001:00001D0E   176 0001:00001D14   177 0001:00001D1B   178 0001:00001D25
   179 0001:00001D2E   180 0001:00001D37   184 0001:00001D3C   185 0001:00001D41
   187 0001:00001E20

Line numbers for renderwindow(renderwindow.pas) segment .text

    72 0001:000022A0    73 0001:000022B7    74 0001:000022C0    75 0001:000022D6
    76 0001:000022DF    77 0001:000022EC    78 0001:000022F9    79 0001:00002306
    81 0001:00002316    82 0001:0000232C    83 0001:00002335    84 0001:00002342
    85 0001:0000234F    86 0001:0000235C    88 0001:0000236C    89 0001:00002382
    90 0001:0000238B    91 0001:00002398    92 0001:000023A5    93 0001:000023B2
    95 0001:000023C2    96 0001:000023D8    97 0001:000023E1    98 0001:000023EE
    99 0001:000023FB   100 0001:00002408   102 0001:00002418   103 0001:00002420
   104 0001:0000242C   105 0001:00002438   106 0001:00002444   107 0001:0000244D
   108 0001:00002456   109 0001:0000245D   110 0001:00002464   111 0001:0000246E
   112 0001:00002491   115 0001:0000249C   116 0001:000024A7   117 0001:000024B2
   118 0001:000024BD   119 0001:000024C8   120 0001:000024D3   121 0001:000024EA
   124 0001:000024F0   125 0001:000024F3   126 0001:0000250B   127 0001:00002515
   131 0001:00002518   133 0001:00002520   134 0001:00002526   136 0001:0000252B
   142 0001:0000252C   143 0001:00002533   144 0001:0000253C   147 0001:0000254A
   149 0001:0000256C   151 0001:00002588   152 0001:0000258F   154 0001:00002596
   156 0001:000025B3   161 0001:000025C0   162 0001:000025CB   166 0001:000025E6
   167 0001:000025F1   168 0001:000025F9   169 0001:00002602   170 0001:0000260C
   173 0001:0000261D   174 0001:00002624   177 0001:00002630   178 0001:00002636
   180 0001:00002642   182 0001:00002659   183 0001:0000265E   186 0001:00002669
   189 0001:00002672   190 0001:0000267B   194 0001:00002680   195 0001:00002683
   196 0001:0000268A   197 0001:00002694   200 0001:00002698   201 0001:0000269C
   202 0001:000026A3   203 0001:000026BB   205 0001:000026C8   207 0001:000026D7
   208 0001:000026E8   209 0001:000026F9   210 0001:0000270A   214 0001:0000271D
   215 0001:0000272E   216 0001:0000273F   217 0001:00002750   220 0001:00002761
   223 0001:00002764   224 0001:0000276A   226 0001:00002772   227 0001:00002778
   228 0001:00002785   229 0001:00002792   230 0001:0000279F   231 0001:000027AC
   233 0001:000027B6   237 0001:000027BC   239 0001:000027C4   240 0001:000027CA
   242 0001:000027D2   246 0001:000027D4   248 0001:000027DC   249 0001:000027E2
   251 0001:000027EA   253 0001:0000281C

Line numbers for multi_edit(multi_edit.pas) segment .text

   289 0001:00003AC4   290 0001:00003ADB   291 0001:00003AE4   292 0001:00003AF8
   293 0001:00003B11   294 0001:00003B21   295 0001:00003B2D   296 0001:00003B39
   297 0001:00003B4B   298 0001:00003B5D   299 0001:00003B6B   300 0001:00003B8B
   303 0001:00003B9C   304 0001:00003BA7   305 0001:00003BB2   306 0001:00003BBD
   307 0001:00003BC8   308 0001:00003BDF   312 0001:00003BE4   313 0001:00003BEB
   314 0001:00003BF0   318 0001:00003BF4   319 0001:00003BFB   320 0001:00003C00
   324 0001:00003C04   325 0001:00003C0A   328 0001:00003C0C   329 0001:00003C0F
   330 0001:00003C20   331 0001:00003C3D   336 0001:00003C4C   337 0001:00003C50
   338 0001:00003C56   339 0001:00003C5F   340 0001:00003C6B   343 0001:00003C70
   344 0001:00003C75   345 0001:00003C93   346 0001:00003CB5   347 0001:00003CC7
   351 0001:00003CD4   352 0001:00003CDA   353 0001:00003CE4   357 0001:00003CE8
   358 0001:00003CF1   359 0001:00003CFC   360 0001:00003D09   361 0001:00003D11
   364 0001:00003D18   365 0001:00003D1B   366 0001:00003D2C   367 0001:00003D33
   368 0001:00003D5C   369 0001:00003D63   371 0001:00003D6A   372 0001:00003D70
   373 0001:00003D7F   374 0001:00003D91   376 0001:00003DA1   379 0001:00003DA4
   380 0001:00003DA7   381 0001:00003DB6   382 0001:00003DC5   388 0001:00003DC8
   389 0001:00003DD5   390 0001:00003DDF   391 0001:00003DE9   392 0001:00003DF2
   393 0001:00003E07   394 0001:00003E14   395 0001:00003E25   396 0001:00003E2F
   398 0001:00003E38   399 0001:00003E4C   400 0001:00003E59   401 0001:00003E68
   402 0001:00003E73   403 0001:00003E80   404 0001:00003E94   405 0001:00003EA1
   406 0001:00003EAE   407 0001:00003EBD   409 0001:00003ECA   410 0001:00003ECC
   411 0001:00003ED2   414 0001:00003F4D   416 0001:00003F74   418 0001:00003F94
   421 0001:00003FA0   422 0001:00003FA3   423 0001:00003FAA   424 0001:00003FB1
   425 0001:00003FB8   432 0001:00003FBC   433 0001:00003FCC   434 0001:00003FE0
   436 0001:00003FF7   438 0001:0000402F   439 0001:0000403D   441 0001:00004046
   442 0001:0000404D   443 0001:00004057   444 0001:0000405E   445 0001:0000407B
   446 0001:0000409B   447 0001:000040A7   450 0001:000040B1   451 0001:000040B8
   458 0001:000040C8   459 0001:000040D4   460 0001:000040E2   462 0001:000040EF
   464 0001:000040F8   465 0001:0000410B   467 0001:00004121   469 0001:00004143
   470 0001:00004159   471 0001:00004167   472 0001:00004178   475 0001:00004184
   479 0001:00004194   480 0001:0000419E   481 0001:000041B0   482 0001:000041B9
   483 0001:000041C0   484 0001:000041C7   485 0001:000041D1   486 0001:000041E2
   488 0001:000041E9   491 0001:000041F0   492 0001:000041F3   493 0001:000041FD
   494 0001:00004209   496 0001:00004216   501 0001:00004218   502 0001:0000422A
   503 0001:00004233   504 0001:00004245   505 0001:00004257   506 0001:00004274
   507 0001:00004291   508 0001:000042A1   509 0001:000042B1   510 0001:000042BD
   511 0001:000042C9   512 0001:000042DB   513 0001:000042ED   514 0001:000042FF
   515 0001:00004306   516 0001:00004324   519 0001:00004340   520 0001:0000434B
   521 0001:00004356   522 0001:00004361   523 0001:0000436C   524 0001:00004377
   525 0001:00004382   526 0001:0000438D   527 0001:000043A4   531 0001:000043A8
   532 0001:000043AF   533 0001:000043B4   537 0001:000043B8   538 0001:000043BE
   541 0001:000043C0   542 0001:000043C3   543 0001:000043D4   544 0001:000043F1
   548 0001:00004400   549 0001:00004406   552 0001:00004408   553 0001:0000440B
   554 0001:0000441C   555 0001:00004439   560 0001:00004448   561 0001:0000444C
   562 0001:00004452   563 0001:0000445B   564 0001:00004467   568 0001:0000446C
   569 0001:00004472   570 0001:0000447C   574 0001:00004480   575 0001:00004489
   576 0001:00004494   577 0001:000044A1   578 0001:000044A9   581 0001:000044B0
   582 0001:000044B3   583 0001:000044C4   584 0001:000044CB   585 0001:000044F4
   586 0001:000044FB   587 0001:00004502   588 0001:00004508   589 0001:0000451B
   590 0001:0000452D   591 0001:0000453F   593 0001:0000454F   596 0001:00004554
   597 0001:00004557   598 0001:00004566   599 0001:00004575   600 0001:00004584
   607 0001:00004588   608 0001:00004595   609 0001:0000459F   610 0001:000045A9
   611 0001:000045B2   612 0001:000045C7   613 0001:000045D4   614 0001:000045E5
   615 0001:000045EF   622 0001:000045F8   623 0001:0000460C   624 0001:00004619
   625 0001:00004628   626 0001:00004633   627 0001:00004642   628 0001:00004656
   629 0001:00004663   630 0001:00004668   631 0001:00004677   634 0001:00004686
   635 0001:0000469A   636 0001:000046A7   637 0001:000046B7   638 0001:000046C6
   639 0001:000046D3   640 0001:000046E7   641 0001:000046F4   642 0001:00004706
   644 0001:00004716   645 0001:0000471B   646 0001:00004721   649 0001:0000479C
   662 0001:000047C3   664 0001:000047E3   667 0001:00004872   680 0001:00004899
   681 0001:000048B9   682 0001:000048BE   683 0001:000048CB   684 0001:000048DD
   687 0001:000048ED   690 0001:00004900   691 0001:00004903   692 0001:0000490A
   693 0001:00004911   694 0001:00004918   697 0001:0000491C   698 0001:0000491F
   699 0001:00004929   700 0001:00004937   702 0001:00004944   705 0001:00004948
   706 0001:0000494B   707 0001:00004955   708 0001:00004963   710 0001:00004970
   714 0001:00004974   715 0001:00004982   716 0001:00004996   717 0001:000049AD
   719 0001:000049E5   720 0001:000049F3   721 0001:00004A01   722 0001:00004A07
   723 0001:00004A25   724 0001:00004A2C   727 0001:00004A35   728 0001:00004A3C
   730 0001:00004A43   731 0001:00004A51   732 0001:00004A57   734 0001:00004A61
   735 0001:00004A7E   736 0001:00004A8F   737 0001:00004A9F   739 0001:00004AAC
   741 0001:00004AB3   746 0001:00004ABC   747 0001:00004ACF   748 0001:00004ADC
   749 0001:00004AE9   750 0001:00004B0B   751 0001:00004B13   752 0001:00004B37
   753 0001:00004B3C   754 0001:00004B4E   755 0001:00004B55   759 0001:00004B69
   760 0001:00004B6E   761 0001:00004B80   762 0001:00004B87   766 0001:00004B9B
   767 0001:00004BA4   768 0001:00004BAB   771 0001:00004BB5   775 0001:00004BC0
   776 0001:00004BD5   777 0001:00004BE4   778 0001:00004BED   779 0001:00004BF4
   780 0001:00004C06   781 0001:00004C0D   782 0001:00004C14   785 0001:00004C1E
   788 0001:00004C28   789 0001:00004C32   790 0001:00004C45   791 0001:00004C5D
   792 0001:00004C6B   794 0001:00004C98   795 0001:00004CA8   798 0001:00004CB2
   802 0001:00004CB8   803 0001:00004CBF   804 0001:00004CC9   822 0001:00004E50
   823 0001:00004E62   824 0001:00004E6B   825 0001:00004E74   826 0001:00004E7E
   827 0001:00004E89   828 0001:00004EA9   831 0001:00004EAC   832 0001:00004EB7
   833 0001:00004EC5   834 0001:00004EDC   837 0001:00004EE0   838 0001:00004EE8
   839 0001:00004EF3   840 0001:00004F03   841 0001:00004F0D   842 0001:00004F1B
   843 0001:00004F34   844 0001:00004F47   845 0001:00004F53   847 0001:00004F77
   851 0001:00004F89   855 0001:00004F90   856 0001:00004F95   860 0001:00004F98
   861 0001:00004F9D   864 0001:00004FA0   865 0001:00004FA3   866 0001:00004FAA
   867 0001:00004FC2   871 0001:00004FC4   872 0001:00004FD6   873 0001:00004FDF
   874 0001:00004FEB   875 0001:00004FF8   876 0001:00005013   877 0001:0000501A
   878 0001:00005024   879 0001:0000502B   880 0001:00005032   881 0001:00005039
   882 0001:00005041   883 0001:0000504B   884 0001:00005059   885 0001:00005077
   888 0001:0000508C   889 0001:00005097   890 0001:0000509E   891 0001:000050A5
   893 0001:000050AF   894 0001:000050B4   895 0001:000050BC   896 0001:000050C7
   898 0001:000050CF   900 0001:000050D9   901 0001:000050DE   903 0001:000050E6
   905 0001:000050F0   906 0001:000050F5   907 0001:000050FD   908 0001:00005108
   910 0001:00005110   911 0001:00005127   914 0001:0000512C   915 0001:00005131
   916 0001:0000513B   917 0001:00005146   918 0001:0000514E   919 0001:00005159
   920 0001:00005161   921 0001:0000516C   922 0001:00005174   923 0001:0000517F
   924 0001:00005187   926 0001:000051A1   928 0001:000051B7   929 0001:000051C0
   930 0001:000051D8   931 0001:000051E1   932 0001:000051EA   936 0001:000051FF
   937 0001:00005215   938 0001:0000521E   939 0001:0000522B   940 0001:00005242
   941 0001:00005258   942 0001:00005261   943 0001:00005272   944 0001:0000527F
   945 0001:00005299   946 0001:000052AD   949 0001:000052CC   950 0001:000052E2
   951 0001:000052EB   952 0001:000052F8   953 0001:0000530F   954 0001:00005325
   955 0001:0000532E   956 0001:0000533F   957 0001:0000534C   958 0001:00005362
   959 0001:0000537C   962 0001:00005393   966 0001:00005398   967 0001:0000539E
   968 0001:000053A3   972 0001:000053A4   973 0001:000053B6   974 0001:000053B8
   979 0001:000053BC   980 0001:000053C0   981 0001:000053C6   982 0001:000053CC
   983 0001:000053D7   984 0001:000053DE   985 0001:000053E5   987 0001:000053EC
   990 0001:000053F0   991 0001:000053FA   992 0001:0000541C   993 0001:00005425
   994 0001:00005433   996 0001:0000543F  1001 0001:00005444  1002 0001:00005468
  1003 0001:0000548F  1005 0001:000054A7  1006 0001:000054B1  1007 0001:000054BF
  1008 0001:000054CA  1010 0001:000054FE  1012 0001:00005510  1013 0001:0000552A
  1014 0001:00005534  1015 0001:00005540  1016 0001:0000554A  1018 0001:00005561
  1020 0001:000055A8  1024 0001:000055B0  1025 0001:000055BE  1026 0001:000055CD
  1027 0001:000055DC  1028 0001:000055E1  1033 0001:000055E4  1034 0001:000055EB
  1035 0001:000055F5  1036 0001:00005603  1037 0001:00005615  1039 0001:00005622
  1040 0001:0000563E  1042 0001:00005663  1043 0001:00005680  1045 0001:000056A6
  1046 0001:000056CB  1048 0001:000056D8  1049 0001:000056F4  1051 0001:00005719
  1052 0001:00005736  1054 0001:0000575C  1056 0001:0000577C  1059 0001:00005784
  1060 0001:0000578E  1061 0001:0000579A  1062 0001:000057B2  1063 0001:000057C6
  1064 0001:000057D8  1066 0001:000057DD  1070 0001:000057E4  1071 0001:000057F2
  1074 0001:000057F4  1075 0001:000057FA  1076 0001:0000580A  1077 0001:0000580D
  1079 0001:00005814  1080 0001:00005819  1081 0001:00005820  1082 0001:00005833
  1083 0001:0000583C  1085 0001:00005846  1086 0001:0000585D  1089 0001:00005865
  1094 0001:00005868  1095 0001:0000589D  1096 0001:000058AE  1098 0001:000058BC
  1099 0001:000058E7  1101 0001:00005915  1102 0001:00005980  1103 0001:000059AE
  1104 0001:000059D4  1105 0001:00005A03  1106 0001:00005A07  1108 0001:00005A34
  1109 0001:00005A4F  1110 0001:00005A6B  1111 0001:00005AB4  1116 0001:00005B28
  1117 0001:00005B2E  1118 0001:00005B37  1119 0001:00005B54  1122 0001:00005B58
  1123 0001:00005B5B  1124 0001:00005B62  1125 0001:00005B69  1130 0001:00005B6C
  1131 0001:00005B73  1132 0001:00005BA0  1133 0001:00005BB7  1137 0001:00005BC0
  1138 0001:00005BC8  1139 0001:00005BCE  1141 0001:00005BD3  1146 0001:00005BD4
  1147 0001:00005BD7  1148 0001:00005BDE  1151 0001:00005BE0  1152 0001:00005BE5
  1154 0001:00005BF0  1155 0001:00005BF7  1157 0001:00005BFE  1162 0001:00005C00
  1163 0001:00005C1C  1165 0001:00005C34  1166 0001:00005C3E  1167 0001:00005C4C
  1168 0001:00005C57  1170 0001:00005C86  1172 0001:00005C98  1173 0001:00005CB2
  1174 0001:00005CBC  1175 0001:00005CC8  1176 0001:00005CD2  1178 0001:00005CE9
  1180 0001:00005D2D  1185 0001:00005D34  1186 0001:00005D50  1188 0001:00005D68
  1189 0001:00005D72  1190 0001:00005D80  1191 0001:00005D8B  1193 0001:00005DBA
  1195 0001:00005DCC  1196 0001:00005DE6  1197 0001:00005DF0  1198 0001:00005DFC
  1199 0001:00005E06  1201 0001:00005E1D  1203 0001:00005E61  1206 0001:00005E68
  1207 0001:00005E6B  1208 0001:00005E72  1209 0001:00005E79  1210 0001:00005E80
  1213 0001:00005E84  1214 0001:00005E87  1215 0001:00005E8E  1216 0001:00005E95
  1217 0001:00005E9C  1220 0001:00005EA0  1221 0001:00005EA4  1222 0001:00005EAB
  1223 0001:00005EB5  1224 0001:00005EC5  1226 0001:00005ECC  1227 0001:00005EE6
  1228 0001:00005F00  1231 0001:00005F04  1232 0001:00005F07  1233 0001:00005F19
  1234 0001:00005F20  1237 0001:00005F24  1238 0001:00005F27  1239 0001:00005F39
  1240 0001:00005F40  1243 0001:00005F44  1244 0001:00005F4A  1245 0001:00005F51
  1246 0001:00005F90  1249 0001:00005F98  1250 0001:00005F9E  1251 0001:00005FB4
  1252 0001:00005FBD  1255 0001:00005FC0  1256 0001:00005FE8  1257 0001:00005FF6
  1258 0001:0000601C  1259 0001:0000604F  1261 0001:0000607B  1262 0001:000060A9
  1264 0001:00006101  1267 0001:00006114  1268 0001:0000612E  1269 0001:00006138
  1270 0001:00006175  1271 0001:00006179  1273 0001:000061AB  1274 0001:000061D6
  1275 0001:0000620F  1278 0001:00006218  1279 0001:0000621B  1280 0001:00006227
  1283 0001:0000622C  1284 0001:0000622D  1285 0001:0000623F  1288 0001:00006244
  1289 0001:0000624A  1290 0001:00006252  1291 0001:00006258  1292 0001:0000626D
  1294 0001:0000627B  1295 0001:00006297  1298 0001:000062C3  1301 0001:000062CC
  1302 0001:000062CE  1303 0001:000062E0  1306 0001:000062E8  1307 0001:000062EA
  1308 0001:000062FC  1311 0001:00006304  1312 0001:00006306  1313 0001:00006318
  1316 0001:00006320  1317 0001:00006323  1318 0001:00006336  1321 0001:0000633C
  1322 0001:0000633F  1323 0001:00006347  1324 0001:0000634D  1326 0001:00006362
  1329 0001:00006364  1330 0001:00006367  1331 0001:0000636F  1332 0001:00006375
  1333 0001:0000637C  1335 0001:00006383  1338 0001:00006388  1339 0001:00006390
  1340 0001:000063A4  1341 0001:000063B7  1342 0001:000063C7  1343 0001:000063E6
  1344 0001:000063F6  1346 0001:00006416  1349 0001:0000641C  1350 0001:00006422
  1351 0001:00006433  1352 0001:0000643A  1353 0001:00006441  1354 0001:0000644F
  1355 0001:00006462  1358 0001:00006468  1359 0001:0000646E  1360 0001:00006475
  1362 0001:0000648E  1363 0001:00006497  1365 0001:000064A3  1368 0001:000064B4
  1369 0001:000064BA  1370 0001:000064CD  1373 0001:000064D0  1374 0001:000064D6
  1375 0001:000064ED  1378 0001:000064F0  1379 0001:000064F3  1380 0001:00006505
  1382 0001:0000650F  1384 0001:0000651C  1387 0001:00006520  1388 0001:00006523
  1389 0001:00006539  1392 0001:0000653C  1393 0001:0000653F  1395 0001:00006547
  1396 0001:0000654D  1397 0001:00006554  1398 0001:00006563  1400 0001:00006572
  1402 0001:000065A4

Line numbers for multi_color(multi_color.pas) segment .text

    43 0001:000066C4    44 0001:000066D6    45 0001:000066DF    46 0001:000066EB
    47 0001:000066F7    48 0001:00006703    49 0001:0000670B    50 0001:00006713
    51 0001:0000671A    52 0001:00006738    55 0001:00006740    56 0001:0000674B
    57 0001:00006762    60 0001:00006768    61 0001:0000676B    62 0001:00006772
    63 0001:00006779    64 0001:0000677F    65 0001:00006785    66 0001:00006790
    67 0001:0000679D    68 0001:000067AA    71 0001:000067AC    72 0001:000067AF
    73 0001:000067B8    75 0001:000067C0    76 0001:000067C7    77 0001:000067D7
    78 0001:000067E7    80 0001:000067F4    84 0001:000067F8    85 0001:000067FA
    87 0001:00006803    88 0001:0000680B    90 0001:0000680F    94 0001:00006810
    95 0001:00006816    98 0001:00006818    99 0001:0000681B   100 0001:00006821
   101 0001:00006828   102 0001:0000682F   103 0001:0000683A   104 0001:00006847
   108 0001:0000684C   109 0001:00006852   111 0001:00006884

Line numbers for multi_check(multi_check.pas) segment .text

    32 0001:00006A1C    33 0001:00006A1F    34 0001:00006A26    35 0001:00006A38
    38 0001:00006A3C    39 0001:00006A42    40 0001:00006A58    41 0001:00006A6F
    45 0001:00006A74    46 0001:00006A85    47 0001:00006A8D    50 0001:00006AC0

Line numbers for gradient(gradient.pas) segment .text

   131 0001:000070F4   133 0001:0000710B   135 0001:00007114   136 0001:00007120
   137 0001:0000712C   138 0001:00007136   139 0001:00007140   140 0001:00007147
   141 0001:0000714E   142 0001:00007158   143 0001:00007162   144 0001:00007176
   145 0001:00007183   146 0001:00007193   147 0001:0000719A   148 0001:000071A4
   149 0001:000071C5   153 0001:000071E4   154 0001:000071E7   155 0001:000071ED
   156 0001:000071F4   157 0001:000071FB   161 0001:00007200   162 0001:00007203
   163 0001:00007209   164 0001:00007210   165 0001:00007217   170 0001:0000721C
   171 0001:00007222   172 0001:00007227   177 0001:00007228   178 0001:0000722E
   179 0001:00007233   183 0001:00007234   184 0001:00007238   186 0001:00007242
   187 0001:00007249   189 0001:00007250   193 0001:00007254   194 0001:00007274
   195 0001:00007282   196 0001:000072A6   201 0001:000072AC   202 0001:000072B2
   203 0001:000072B7   208 0001:000072B8   209 0001:000072BE   210 0001:000072C3
   215 0001:000072C4   216 0001:000072C7   217 0001:000072CE   218 0001:000072E6
   235 0001:000072E8   237 0001:000072F1   238 0001:000072FA   239 0001:00007304
   240 0001:00007308   241 0001:00007315   242 0001:0000731E   244 0001:00007337
   245 0001:0000733D   246 0001:00007343   247 0001:0000734A   248 0001:00007351
   253 0001:00007357   254 0001:00007365   255 0001:00007370   260 0001:0000737B
   264 0001:0000739C   265 0001:000073AF   266 0001:000073C3   268 0001:000073D7
   270 0001:000073F7   272 0001:00007418   279 0001:0000743E   280 0001:00007451
   281 0001:00007465   283 0001:00007479   285 0001:00007499   287 0001:000074BA
   293 0001:000074DB   294 0001:000074EC   296 0001:000074FD   302 0001:0000750D
   303 0001:00007513   307 0001:0000751D   308 0001:00007523   313 0001:0000752B
   314 0001:0000753D   318 0001:0000754D   319 0001:00007565   323 0001:00007582
   324 0001:0000759A   329 0001:000075B5   330 0001:000075BE   331 0001:000075DA
   332 0001:000075F7   334 0001:00007616   335 0001:0000761D   336 0001:00007625
   340 0001:0000762D   341 0001:0000764F   342 0001:0000765F   345 0001:00007667
   346 0001:00007670   347 0001:00007684   348 0001:00007694   349 0001:000076A8
   353 0001:000076CB   356 0001:000076DF   357 0001:000076EF   358 0001:00007703
   362 0001:00007721   363 0001:00007728   367 0001:00007734   368 0001:00007737
   370 0001:0000773F   371 0001:00007745   372 0001:0000774C   374 0001:00007753
   378 0001:00007758   380 0001:00007760   381 0001:00007766   383 0001:0000776B
   386 0001:0000776C   387 0001:0000776F   389 0001:00007777   390 0001:0000777D
   391 0001:00007784   393 0001:0000778B   397 0001:00007790   399 0001:00007798
   400 0001:0000779E   402 0001:000077A3   404 0001:000077D4

Line numbers for ExtBtn(ExtBtn.pas) segment .text

   211 0001:00008280   212 0001:00008295   213 0001:000082A2   214 0001:000082CB
   217 0001:000082D4   218 0001:000082DF   219 0001:000082EA   220 0001:00008301
   223 0001:00008304   224 0001:00008308   225 0001:00008315   227 0001:00008320
   228 0001:0000832D   230 0001:0000833B   231 0001:0000834C   234 0001:00008350
   235 0001:0000835A   236 0001:00008363   237 0001:0000836F   238 0001:00008377
   241 0001:0000837C   242 0001:00008382   244 0001:00008393   245 0001:00008399
   247 0001:000083A8   252 0001:000083AC   253 0001:000083BE   254 0001:000083C7
   255 0001:000083ED   258 0001:000083F0   259 0001:000083FB   260 0001:00008403
   261 0001:0000841A   266 0001:00008420   267 0001:0000842C   269 0001:00008438
   271 0001:00008444   272 0001:00008451   273 0001:00008457   274 0001:0000846B
   275 0001:00008477   278 0001:00008480   279 0001:00008483   280 0001:00008487
   282 0001:00008490   283 0001:0000849A   285 0001:000084A1   289 0001:000084A4
   290 0001:000084AE   301 0001:000084B0   302 0001:000084C7   303 0001:000084D0
   304 0001:000084E1   305 0001:000084EB   306 0001:000084F2   307 0001:000084F6
   308 0001:000084F8   309 0001:00008509   310 0001:0000853C   313 0001:00008544
   314 0001:0000854F   315 0001:00008557   316 0001:0000855E   318 0001:00008575
   319 0001:0000857F   321 0001:00008586   322 0001:0000859D   327 0001:000085A0
   328 0001:000085A5   330 0001:000085A7   331 0001:000085C3   332 0001:000085CB
   333 0001:000085D1   334 0001:000085DE   335 0001:000085E3   338 0001:000085E8
   339 0001:000085EB   341 0001:000085F0   344 0001:000085F7   345 0001:000085FE
   347 0001:0000860D   352 0001:00008610   353 0001:00008616   354 0001:0000861D
   355 0001:00008627   357 0001:00008636   360 0001:0000863D   362 0001:00008657
   363 0001:0000866D   364 0001:00008677   367 0001:00008680   370 0001:00008684
   371 0001:0000868A   373 0001:00008693   374 0001:0000869A   375 0001:0000869D
   377 0001:000086A7   388 0001:000086AC   389 0001:000086BB   390 0001:000086CE
   391 0001:000086DA   392 0001:000086E3   393 0001:00008703   394 0001:0000871C
   395 0001:00008729   397 0001:00008732   398 0001:0000874C   400 0001:00008760
   401 0001:0000876F   402 0001:0000877D   403 0001:00008787   404 0001:00008791
   405 0001:000087A1   406 0001:000087B7   407 0001:000087D1   408 0001:000087D4
   409 0001:000087DE   410 0001:000087F8   414 0001:0000880A   415 0001:0000882B
   416 0001:00008837   418 0001:0000885C   422 0001:00008880   423 0001:00008885
   424 0001:0000888A   425 0001:00008898   426 0001:000088A7   427 0001:000088B6
   428 0001:000088C4   429 0001:000088CE   430 0001:000088DB   432 0001:000088E6
   433 0001:000088FF   434 0001:00008909   435 0001:00008913   438 0001:0000891D
   439 0001:00008932   440 0001:00008950   441 0001:00008960   442 0001:0000896A
   443 0001:00008972   444 0001:0000897D   448 0001:000089A0   449 0001:000089B5
   450 0001:000089D3   451 0001:000089E3   452 0001:000089ED   453 0001:000089F5
   454 0001:00008A00   458 0001:00008A23   459 0001:00008A40   460 0001:00008A5E
   461 0001:00008A6F   462 0001:00008A79   463 0001:00008A81   464 0001:00008A8C
   472 0001:00008AB4   473 0001:00008AC2   474 0001:00008ACC   475 0001:00008ADE
   476 0001:00008AE8   478 0001:00008AF4   479 0001:00008B09   480 0001:00008B13
   482 0001:00008B28   484 0001:00008B32   486 0001:00008B3C   487 0001:00008B4A
   488 0001:00008B54   489 0001:00008B61   490 0001:00008B70   491 0001:00008B82
   493 0001:00008BAC   494 0001:00008BB9   495 0001:00008BC8   496 0001:00008BDA
   501 0001:00008C11   502 0001:00008C19   504 0001:00008C29   508 0001:00008C55
   510 0001:00008C65   511 0001:00008C71   512 0001:00008C7E   518 0001:00008C88
   519 0001:00008C96   520 0001:00008CA0   521 0001:00008CBC   523 0001:00008CC8
   524 0001:00008CD4   527 0001:00008D05   529 0001:00008D38   533 0001:00008D40
   536 0001:00008D5A   538 0001:00008D64   540 0001:00008D6E   541 0001:00008D7B
   542 0001:00008D88   544 0001:00008DAF   545 0001:00008DBC   546 0001:00008DC9
   549 0001:00008DF0   552 0001:00008E15   562 0001:00008E20   563 0001:00008E37
   564 0001:00008E42   566 0001:00008E4E   568 0001:00008E58   571 0001:00008E6B
   572 0001:00008E74   573 0001:00008EA2   575 0001:00008EAE   577 0001:00008EBA
   578 0001:00008ED9   580 0001:00008F03   585 0001:00008F18   586 0001:00008F34
   592 0001:00008F40   594 0001:00008F47   595 0001:00008F5A   599 0001:00008F6A
   600 0001:00008F7C   604 0001:00008F8A   605 0001:00008F96   608 0001:00008F9B
   610 0001:00008FA5   612 0001:00008FAB   613 0001:00008FBF   614 0001:00008FC6
   616 0001:00008FD9   617 0001:00008FEA   621 0001:00008FF5   623 0001:0000900F
   624 0001:00009016   626 0001:00009029   631 0001:0000903C   633 0001:00009042
   635 0001:00009062   636 0001:00009069   638 0001:0000907B   642 0001:0000908B
   645 0001:0000909E   646 0001:000090A3   650 0001:000090AE   651 0001:000090B9
   655 0001:000090C4   656 0001:000090CA   660 0001:000090D5   661 0001:000090E1
   668 0001:000090EA   669 0001:000090F3   671 0001:000090FF   673 0001:0000911E
   681 0001:00009128   682 0001:0000913B   684 0001:00009164   685 0001:00009178
   686 0001:0000918F   690 0001:00009198   691 0001:000091B1   692 0001:000091C3
   693 0001:000091D3   694 0001:000091E5   695 0001:000091FE   696 0001:00009209
   697 0001:0000921B   698 0001:00009223   699 0001:0000922C   700 0001:00009236
   701 0001:00009240   702 0001:0000924A   703 0001:00009251   704 0001:00009258
   705 0001:0000925F   706 0001:00009269   707 0001:00009270   708 0001:00009277
   709 0001:0000927E   710 0001:00009285   711 0001:0000928E   713 0001:00009294
   714 0001:0000929E   715 0001:000092A6   716 0001:000092AD   717 0001:000092B7
   718 0001:000092C1   720 0001:000092CD   721 0001:000092DC   722 0001:000092EB
   723 0001:0000930B   726 0001:00009324   727 0001:0000932F   728 0001:00009335
   729 0001:00009341   730 0001:0000934C   731 0001:00009362   741 0001:00009368
   742 0001:00009385   743 0001:00009390   744 0001:00009397   745 0001:000093A0
   746 0001:000093A9   747 0001:000093BB   749 0001:000093C4   750 0001:000093CB
   752 0001:000093D9   753 0001:000093FE   755 0001:00009412   756 0001:0000941B
   757 0001:00009420   758 0001:0000942C   759 0001:00009432   761 0001:0000944F
   764 0001:0000949A   765 0001:000094DC   766 0001:000094E5   767 0001:000094F9
   769 0001:00009507   771 0001:00009514   772 0001:00009524   773 0001:00009552
   774 0001:00009573   776 0001:00009593   777 0001:000095A5   778 0001:000095AC
   780 0001:000095B5   781 0001:000095BA   784 0001:000095C1   785 0001:000095C6
   786 0001:000095CB   787 0001:000095D4   788 0001:000095E8   795 0001:000095F6
   796 0001:00009618   798 0001:00009626   800 0001:0000967D   801 0001:000096C8
   802 0001:000096E4   803 0001:000096ED   804 0001:000096F2   805 0001:000096FE
   806 0001:00009704   808 0001:00009721   810 0001:0000976C   812 0001:000097AE
   813 0001:000097B7   814 0001:000097CB   816 0001:000097D9   818 0001:000097E6
   819 0001:000097F2   820 0001:0000980D   821 0001:0000982D   823 0001:0000983B
   824 0001:00009842   826 0001:0000984B   827 0001:00009850   828 0001:00009855
   829 0001:0000985E   830 0001:00009872   833 0001:00009880   835 0001:000098E3
   838 0001:000098EC   839 0001:000098F0   841 0001:000098F9   843 0001:00009900
   845 0001:00009912   846 0001:00009929   848 0001:00009930   853 0001:00009938
   854 0001:0000993F   856 0001:00009948   858 0001:00009953   859 0001:00009959
   860 0001:00009970   861 0001:00009974   863 0001:00009986   866 0001:00009996
   871 0001:0000999C   872 0001:000099A0   873 0001:000099A7   874 0001:000099B2
   876 0001:000099B6   877 0001:000099B8   878 0001:000099C5   879 0001:000099D2
   883 0001:000099D8   884 0001:000099E9   885 0001:000099FA   887 0001:00009A03
   888 0001:00009A0A   890 0001:00009A0C   892 0001:00009A1B   894 0001:00009A35
   895 0001:00009A3C   898 0001:00009A45   900 0001:00009A4E   901 0001:00009A55
   903 0001:00009A5C   905 0001:00009A6E   906 0001:00009A75   908 0001:00009A7C
   910 0001:00009A83   915 0001:00009A8C   916 0001:00009A9D   917 0001:00009AAA
   919 0001:00009AB3   920 0001:00009AC2   921 0001:00009AC6   922 0001:00009AE4
   923 0001:00009AF7   925 0001:00009B02   926 0001:00009B0B   929 0001:00009B14
   930 0001:00009B1D   931 0001:00009B24   938 0001:00009B2C   939 0001:00009B41
   940 0001:00009B50   942 0001:00009B5A   943 0001:00009B61   945 0001:00009B68
   947 0001:00009B75   948 0001:00009B7C   950 0001:00009B85   951 0001:00009BB2
   955 0001:00009BE8   956 0001:00009C0F   959 0001:00009C13   962 0001:00009C1C
   963 0001:00009C23   964 0001:00009C2A   965 0001:00009C31   966 0001:00009C49
   969 0001:00009C52   971 0001:00009C5A   973 0001:00009C72   974 0001:00009C91
   978 0001:00009CA6   979 0001:00009CB6   981 0001:00009CC0   982 0001:00009CD1
   984 0001:00009CD7   987 0001:00009CEF   989 0001:00009CF6   993 0001:00009D00
   994 0001:00009D07   998 0001:00009D08   999 0001:00009D0D  1002 0001:00009D10
  1003 0001:00009D13  1004 0001:00009D1F  1008 0001:00009D24  1009 0001:00009D2D
  1012 0001:00009D30  1013 0001:00009D33  1014 0001:00009D3E  1015 0001:00009D45
  1019 0001:00009D48  1020 0001:00009D51  1023 0001:00009D54  1024 0001:00009D57
  1025 0001:00009D5F  1026 0001:00009D66  1028 0001:00009D71  1029 0001:00009D76
  1031 0001:00009D7D  1035 0001:00009D80  1036 0001:00009D85  1041 0001:00009D88
  1042 0001:00009D8B  1044 0001:00009D9B  1045 0001:00009DA2  1046 0001:00009DA6
  1047 0001:00009DAA  1048 0001:00009DB0  1050 0001:00009DBA  1053 0001:00009DC0
  1054 0001:00009DC6  1055 0001:00009DD1  1057 0001:00009DD9  1058 0001:00009DEB
  1059 0001:00009DF1  1061 0001:00009DF5  1062 0001:00009E05  1066 0001:00009E0E
  1067 0001:00009E15  1069 0001:00009E1F  1071 0001:00009E2A  1074 0001:00009E30
  1075 0001:00009E33  1077 0001:00009E3B  1078 0001:00009E41  1080 0001:00009E48
  1084 0001:00009E4C  1086 0001:00009E54  1087 0001:00009E5A  1089 0001:00009E5F
  1092 0001:00009E60  1093 0001:00009E63  1095 0001:00009E6B  1096 0001:00009E71
  1098 0001:00009E78  1101 0001:00009E7C  1102 0001:00009E7F  1104 0001:00009E8C
  1105 0001:00009E92  1107 0001:00009E99  1110 0001:00009E9C  1111 0001:00009E9F
  1113 0001:00009EAC  1114 0001:00009EB2  1116 0001:00009EB9  1119 0001:00009EBC
  1120 0001:00009EBF  1122 0001:00009EC7  1123 0001:00009ECD  1125 0001:00009ED4
  1128 0001:00009ED8  1129 0001:00009EDB  1131 0001:00009EE3  1132 0001:00009EE9
  1133 0001:00009EED  1134 0001:00009EFC  1135 0001:00009F07  1137 0001:00009F0E
  1141 0001:00009F14  1143 0001:00009F1C  1144 0001:00009F22  1146 0001:00009F27
  1149 0001:00009F28  1150 0001:00009F2B  1151 0001:00009F32  1152 0001:00009F46
  1157 0001:00009F48  1158 0001:00009F4B  1159 0001:00009F66  1160 0001:00009F6D
  1161 0001:00009F77  1166 0001:00009F7C  1167 0001:00009F80  1169 0001:00009F8B
  1170 0001:00009F8E  1172 0001:00009F92  1174 0001:00009FA4  1175 0001:00009FAB
  1176 0001:00009FB2  1178 0001:00009FB9  1181 0001:00009FC5  1184 0001:00009FC8
  1186 0001:00009FE2  1189 0001:0000A01F  1190 0001:0000A02A  1192 0001:0000A033
  1193 0001:0000A059  1197 0001:0000A060  1198 0001:0000A065  1202 0001:0000A068
  1203 0001:0000A06D  1206 0001:0000A070  1207 0001:0000A074  1209 0001:0000A07A
  1210 0001:0000A081  1212 0001:0000A08E  1215 0001:0000A094  1216 0001:0000A097
  1219 0001:0000A09E  1222 0001:0000A0CA  1223 0001:0000A0D1  1225 0001:0000A0DB
  1228 0001:0000A0E0  1229 0001:0000A0E3  1230 0001:0000A0EA  1232 0001:0000A110
  1233 0001:0000A117  1235 0001:0000A11E  1239 0001:0000A120  1240 0001:0000A12D
  1242 0001:0000A13A  1243 0001:0000A144  1244 0001:0000A14E  1245 0001:0000A162
  1246 0001:0000A191  1248 0001:0000A1A8  1250 0001:0000A1B0  1251 0001:0000A1BB
  1252 0001:0000A1C5  1256 0001:0000A1D6  1258 0001:0000A214  1260 0001:0000A229
  1263 0001:0000A230  1264 0001:0000A233  1266 0001:0000A24E  1267 0001:0000A254
  1269 0001:0000A25B  1272 0001:0000A260  1273 0001:0000A263  1275 0001:0000A26B
  1276 0001:0000A271  1278 0001:0000A278  1281 0001:0000A27C  1282 0001:0000A27F
  1284 0001:0000A287  1285 0001:0000A28D  1287 0001:0000A294  1290 0001:0000A298
  1291 0001:0000A29B  1293 0001:0000A2A3  1294 0001:0000A2AB  1295 0001:0000A2B4
  1296 0001:0000A2C3  1298 0001:0000A2CA  1301 0001:0000A2CC  1302 0001:0000A2CF
  1304 0001:0000A2D7  1305 0001:0000A2DF  1306 0001:0000A2E9  1308 0001:0000A2F0
  1311 0001:0000A2F4  1312 0001:0000A2F7  1314 0001:0000A2FF  1315 0001:0000A305
  1317 0001:0000A30C  1320 0001:0000A310  1321 0001:0000A313  1323 0001:0000A31B
  1324 0001:0000A321  1326 0001:0000A328  1329 0001:0000A32C  1330 0001:0000A32F
  1332 0001:0000A337  1333 0001:0000A33D  1335 0001:0000A344  1338 0001:0000A348
  1339 0001:0000A34B  1341 0001:0000A353  1342 0001:0000A359  1344 0001:0000A360
  1347 0001:0000A364  1348 0001:0000A36A  1351 0001:0000A376  1352 0001:0000A381
  1353 0001:0000A393  1354 0001:0000A39B  1355 0001:0000A3A3  1356 0001:0000A3BE
  1359 0001:0000A3D7  1360 0001:0000A3E6  1361 0001:0000A3F5  1363 0001:0000A3FC
  1364 0001:0000A454

Line numbers for MXCtrls(MXCtrls.pas) segment .text

   883 0001:0000D790   884 0001:0000D793   885 0001:0000D7AE   891 0001:0000D7B0
   892 0001:0000D7D2   893 0001:0000D7F2   894 0001:0000D7FB   895 0001:0000D825
   898 0001:0000D855   899 0001:0000D889   904 0001:0000D8AC   905 0001:0000D8B1
   906 0001:0000D8B9   907 0001:0000D8CE   908 0001:0000D8EE   909 0001:0000D8F5
   940 0001:0000D8FC   941 0001:0000D902   944 0001:0000D923   945 0001:0000D92C
   946 0001:0000D949   950 0001:0000D955   951 0001:0000D967   952 0001:0000D97A
   953 0001:0000D983   955 0001:0000D98C   959 0001:0000D997   960 0001:0000D99F
   961 0001:0000D9A6   962 0001:0000D9B9   966 0001:0000D9C4   967 0001:0000D9CD
   968 0001:0000D9DE   969 0001:0000D9E5   971 0001:0000D9E8   973 0001:0000D9F1
  1022 0001:0000DB00  1023 0001:0000DB03  1024 0001:0000DB1A  1032 0001:0000DB1C
  1033 0001:0000DB49  1035 0001:0000DB66  1037 0001:0000DB89  1042 0001:0000DBB9
  1045 0001:0000DBC0  1046 0001:0000DBDA  1047 0001:0000DBEA  1048 0001:0000DC27
  1051 0001:0000DC30  1052 0001:0000DC31  1053 0001:0000DC3D  1060 0001:0000DC40
  1062 0001:0000DC5B  1066 0001:0000DC7A  1067 0001:0000DCCE  1074 0001:0000DCD4
  1075 0001:0000DCF2  1081 0001:0000DD12  1082 0001:0000DD60  1085 0001:0000DD68
  1086 0001:0000DD69  1087 0001:0000DD75  1090 0001:0000DD78  1091 0001:0000DD79
  1092 0001:0000DD85  1095 0001:0000DD88  1096 0001:0000DD8E  1097 0001:0000DDA8
  1098 0001:0000DDB7  1107 0001:0000DDBC  1108 0001:0000DDBF  1117 0001:0000DDC0
  1119 0001:0000DDDC  1124 0001:0000DE2D  1129 0001:0000DE34  1130 0001:0000DE4B
  1132 0001:0000DE54  1133 0001:0000DE68  1137 0001:0000DE70  1138 0001:0000DE7C
  1139 0001:0000DE88  1140 0001:0000DE91  1141 0001:0000DE9A  1142 0001:0000DEAC
  1143 0001:0000DEAF  1144 0001:0000DEC3  1145 0001:0000DECC  1146 0001:0000DED6
  1147 0001:0000DEDD  1148 0001:0000DEFD  1151 0001:0000DF0C  1152 0001:0000DF17
  1153 0001:0000DF23  1154 0001:0000DF2E  1155 0001:0000DF39  1156 0001:0000DF4F
  1160 0001:0000DF54  1161 0001:0000DF60  1164 0001:0000DF64  1165 0001:0000DF6A
  1166 0001:0000DF7F  1169 0001:0000DF84  1170 0001:0000DF8D  1171 0001:0000DFA1
  1174 0001:0000DFA8  1175 0001:0000DFAE  1176 0001:0000DFC3  1179 0001:0000DFC8
  1180 0001:0000DFCB  1181 0001:0000DFE6  1187 0001:0000DFE8  1188 0001:0000E00A
  1191 0001:0000E027  1192 0001:0000E02C  1195 0001:0000E045  1196 0001:0000E065
  1200 0001:0000E06E  1201 0001:0000E098  1204 0001:0000E0C9  1206 0001:0000E0FF
  1211 0001:0000E124  1212 0001:0000E129  1213 0001:0000E131  1214 0001:0000E146
  1215 0001:0000E169  1216 0001:0000E170  1219 0001:0000E174  1220 0001:0000E177
  1221 0001:0000E18D  1225 0001:0000E190  1226 0001:0000E19B  1229 0001:0000E19C
  1230 0001:0000E1A0  1231 0001:0000E1A9  1233 0001:0000E1CF  1236 0001:0000E1D4
  1237 0001:0000E1D7  1238 0001:0000E1DF  1239 0001:0000E1EC  1240 0001:0000E1F2
  1243 0001:0000E1FB  1244 0001:0000E201  1246 0001:0000E213  1249 0001:0000E218
  1250 0001:0000E21B  1251 0001:0000E231  1254 0001:0000E234  1255 0001:0000E237
  1256 0001:0000E24D  1259 0001:0000E250  1260 0001:0000E256  1261 0001:0000E261
  1262 0001:0000E276  1266 0001:0000E27C  1267 0001:0000E284  1268 0001:0000E28A
  1270 0001:0000E28F  1274 0001:0000E290  1275 0001:0000E298  1276 0001:0000E29E
  1278 0001:0000E2A3  1282 0001:0000E2A4  1283 0001:0000E2BB  1286 0001:0000E2BC
  1287 0001:0000E2C2  1288 0001:0000E2D9  1289 0001:0000E2EB  1290 0001:0000E2FE
  1291 0001:0000E309  1292 0001:0000E31D  1294 0001:0000E335  1295 0001:0000E347
  1298 0001:0000E34C  1299 0001:0000E352  1300 0001:0000E369  1301 0001:0000E37B
  1302 0001:0000E38E  1303 0001:0000E399  1304 0001:0000E3AD  1306 0001:0000E3C5
  1307 0001:0000E3D7  1310 0001:0000E3DC  1311 0001:0000E3E2  1312 0001:0000E3ED
  1313 0001:0000E3F3  1314 0001:0000E406  1315 0001:0000E411  1316 0001:0000E425
  1319 0001:0000E43B  1324 0001:0000E440  1325 0001:0000E447  1326 0001:0000E44D
  1327 0001:0000E461  1328 0001:0000E472  1330 0001:0000E47C  1334 0001:0000E484
  1335 0001:0000E490  1336 0001:0000E496  1338 0001:0000E49B  1342 0001:0000E49C
  1343 0001:0000E4A2  1344 0001:0000E4AA  1345 0001:0000E4B0  1347 0001:0000E4B5
  1351 0001:0000E4B8  1352 0001:0000E4C0  1353 0001:0000E4C6  1355 0001:0000E4CB
  1360 0001:0000E4CC  1361 0001:0000E4D2  1362 0001:0000E4E9  1363 0001:0000E4F5
  1364 0001:0000E4FB  1367 0001:0000E500  1368 0001:0000E509  1369 0001:0000E512
  1370 0001:0000E52D  1373 0001:0000E536  1374 0001:0000E545  1376 0001:0000E55A
  1380 0001:0000E560  1381 0001:0000E568  1382 0001:0000E56E  1384 0001:0000E573
  1388 0001:0000E574  1389 0001:0000E57C  1390 0001:0000E582  1392 0001:0000E587
  1395 0001:0000E588  1396 0001:0000E58B  1397 0001:0000E5A1  1401 0001:0000E5A4
  1402 0001:0000E5AC  1403 0001:0000E5B2  1405 0001:0000E5B7  1408 0001:0000E5B8
  1409 0001:0000E5BE  1410 0001:0000E5DE  1413 0001:0000E5E4  1414 0001:0000E5E8
  1415 0001:0000E5F0  1416 0001:0000E5F6  1418 0001:0000E60C  1421 0001:0000E610
  1422 0001:0000E613  1423 0001:0000E61E  1429 0001:0000E620  1430 0001:0000E632
  1431 0001:0000E653  1432 0001:0000E65C  1433 0001:0000E669  1434 0001:0000E66D
  1435 0001:0000E680  1436 0001:0000E696  1438 0001:0000E69B  1440 0001:0000E69F
  1441 0001:0000E6A4  1446 0001:0000E6AC  1447 0001:0000E6B5  1448 0001:0000E6C0
  1449 0001:0000E6C8  1450 0001:0000E6D9  1451 0001:0000E6DD  1452 0001:0000E6ED
  1454 0001:0000E6FE  1455 0001:0000E70C  1473 0001:0000E710  1474 0001:0000E716
  1475 0001:0000E71F  1481 0001:0000E72D  1482 0001:0000E732  1483 0001:0000E740
  1489 0001:0000E7BB  1490 0001:0000E7D7  1491 0001:0000E7DE  1494 0001:0000E7E5
  1496 0001:0000E7E9  1501 0001:0000E7F4  1502 0001:0000E7F9  1503 0001:0000E7FC
  1504 0001:0000E7FF  1505 0001:0000E806  1506 0001:0000E821  1507 0001:0000E82A
  1508 0001:0000E845  1509 0001:0000E84C  1510 0001:0000E856  1511 0001:0000E863
  1512 0001:0000E870  1513 0001:0000E87D  1514 0001:0000E888  1516 0001:0000E890
  1519 0001:0000E894  1520 0001:0000E898  1521 0001:0000E8A7  1522 0001:0000E8BB
  1523 0001:0000E8C8  1524 0001:0000E8D5  1526 0001:0000E8E2  1527 0001:0000E8E9
  1530 0001:0000E8EC  1531 0001:0000E8F3  1532 0001:0000E902  1535 0001:0000E927
  1536 0001:0000E930  1537 0001:0000E950  1538 0001:0000E957  1542 0001:0000E95C
  1543 0001:0000E971  1544 0001:0000E984  1545 0001:0000E98D  1547 0001:0000E999
  1548 0001:0000E9A2  1552 0001:0000E9A7  1553 0001:0000E9AF  1554 0001:0000E9B6
  1555 0001:0000E9C9  1556 0001:0000E9D2  1560 0001:0000E9D4  1561 0001:0000E9DD
  1562 0001:0000E9EE  1563 0001:0000E9F5  1568 0001:0000E9F7  1571 0001:0000EA1A
  1572 0001:0000EA20  1573 0001:0000EA2D  1574 0001:0000EA3B  1575 0001:0000EA44
  1578 0001:0000EA46  1579 0001:0000EA4F  1585 0001:0000EA58  1586 0001:0000EA63
  1587 0001:0000EA6E  1588 0001:0000EA7D  1589 0001:0000EA87  1590 0001:0000EA9E
  1591 0001:0000EAAF  1592 0001:0000EABB  1596 0001:0000EABD  1597 0001:0000EAC6
  1599 0001:0000EADF  1600 0001:0000EAEB  1603 0001:0000EAF4  1604 0001:0000EAFA
  1605 0001:0000EB0C  1606 0001:0000EB15  1609 0001:0000EB18  1610 0001:0000EB1B
  1614 0001:0000EB2B  1616 0001:0000EB32  1618 0001:0000EB3F  1620 0001:0000EB4A
  1632 0001:0000EB4C  1634 0001:0000EB5E  1635 0001:0000EB65  1636 0001:0000EB6B
  1637 0001:0000EB75  1638 0001:0000EB7C  1639 0001:0000EB83  1640 0001:0000EB88
  1641 0001:0000EB94  1642 0001:0000EB9E  1644 0001:0000EBA8  1645 0001:0000EBAF
  1646 0001:0000EBB9  1647 0001:0000EBBF  1648 0001:0000EBC6  1650 0001:0000EBD0
  1651 0001:0000EBD2  1652 0001:0000EBDB  1653 0001:0000EBEE  1654 0001:0000EBF6
  1655 0001:0000EBFE  1656 0001:0000EC07  1657 0001:0000EC0A  1658 0001:0000EC1B
  1659 0001:0000EC2D  1660 0001:0000EC33  1661 0001:0000EC3E  1662 0001:0000EC44
  1663 0001:0000EC47  1664 0001:0000EC51  1666 0001:0000EC7B  1667 0001:0000EC85
  1668 0001:0000EC88  1669 0001:0000EC89  1671 0001:0000ECA3  1673 0001:0000ECAC
  1674 0001:0000ECB8  1675 0001:0000ECCA  1676 0001:0000ECD5  1679 0001:0000ECDC
  1680 0001:0000ECDF  1681 0001:0000ECE6  1682 0001:0000ECED  1690 0001:0000ECF0
  1692 0001:0000ECF6  1694 0001:0000ECFE  1695 0001:0000ED04  1700 0001:0000ED1E
  1701 0001:0000ED24  1703 0001:0000ED2A  1704 0001:0000ED35  1705 0001:0000ED3D
  1706 0001:0000ED48  1711 0001:0000ED50  1713 0001:0000ED63  1715 0001:0000ED6E
  1717 0001:0000ED8A  1718 0001:0000EDB4  1720 0001:0000EDE1  1724 0001:0000EDFC
  1725 0001:0000EE25  1727 0001:0000EE4A  1728 0001:0000EE58  1730 0001:0000EE67
  1731 0001:0000EE7C  1735 0001:0000EE80  1739 0001:0000EEE4  1742 0001:0000EEFC
  1743 0001:0000EEFD  1744 0001:0000EF1A  1749 0001:0000EF1C  1750 0001:0000EF23
  1753 0001:0000EF26  1760 0001:0000EF2E  1761 0001:0000EF3C  1762 0001:0000EF4A
  1763 0001:0000EF5B  1764 0001:0000EF67  1765 0001:0000EF6D  1768 0001:0000EF8B
  1769 0001:0000EF98  1770 0001:0000EFB3  1773 0001:0000EFC2  1774 0001:0000EFCF
  1777 0001:0000EFDC  1778 0001:0000EFF9  1779 0001:0000F007  1780 0001:0000F01A
  1782 0001:0000F027  1785 0001:0000F030  1786 0001:0000F031  1787 0001:0000F034
  1788 0001:0000F03D  1789 0001:0000F046  1791 0001:0000F054  1794 0001:0000F058
  1795 0001:0000F05B  1796 0001:0000F062  1797 0001:0000F085  1800 0001:0000F088
  1801 0001:0000F08B  1802 0001:0000F092  1803 0001:0000F0B5  1807 0001:0000F0B8
  1808 0001:0000F0BE  1809 0001:0000F0D8  1810 0001:0000F0E1  1830 0001:0000F170
  1831 0001:0000F182  1832 0001:0000F18B  1833 0001:0000F18F  1834 0001:0000F1AA
  1838 0001:0000F1B0  1839 0001:0000F1B7  1854 0001:0000F2CC  1855 0001:0000F2D7
  1856 0001:0000F2DA  1857 0001:0000F2E7  1858 0001:0000F2F3  1859 0001:0000F300
  1860 0001:0000F30D  1861 0001:0000F318  1862 0001:0000F325  1863 0001:0000F332
  1864 0001:0000F33F  1866 0001:0000F34B  1872 0001:0000F354  1873 0001:0000F35F
  1874 0001:0000F362  1875 0001:0000F36F  1876 0001:0000F37B  1877 0001:0000F386
  1878 0001:0000F393  1880 0001:0000F39F  1889 0001:0000F3A8  1890 0001:0000F3B1
  1891 0001:0000F3C2  1893 0001:0000F3DE  1894 0001:0000F3E3  1898 0001:0000F3F4
  1899 0001:0000F3FD  1900 0001:0000F407  1902 0001:0000F40E  1908 0001:0000F410
  1909 0001:0000F427  1910 0001:0000F430  1911 0001:0000F437  1912 0001:0000F43E
  1913 0001:0000F453  1915 0001:0000F468  1917 0001:0000F47C  1918 0001:0000F489
  1920 0001:0000F496  1921 0001:0000F4AA  1922 0001:0000F4B4  1923 0001:0000F4D7
  1926 0001:0000F4DC  1927 0001:0000F4E7  1928 0001:0000F4F2  1929 0001:0000F4FA
  1930 0001:0000F505  1931 0001:0000F50D  1932 0001:0000F518  1933 0001:0000F52F
  1936 0001:0000F534  1937 0001:0000F537  1938 0001:0000F53E  1939 0001:0000F545
  1943 0001:0000F548  1944 0001:0000F554  1954 0001:0000F558  1955 0001:0000F57F
  1956 0001:0000F58A  1957 0001:0000F5A6  1958 0001:0000F5BB  1959 0001:0000F616
  1966 0001:0000F640  1967 0001:0000F667  1968 0001:0000F68D  1969 0001:0000F697
  1971 0001:0000F6CC  1972 0001:0000F6E2  1973 0001:0000F708  1977 0001:0000F730
  1978 0001:0000F749  1979 0001:0000F77C  1982 0001:0000F784  1983 0001:0000F79D
  1984 0001:0000F7D0  1988 0001:0000F7D8  1989 0001:0000F7F1  1990 0001:0000F824
  1993 0001:0000F82C  1994 0001:0000F845  1995 0001:0000F878  1999 0001:0000F880
  2000 0001:0000F889  2004 0001:0000F88C  2005 0001:0000F897  2008 0001:0000F898
  2009 0001:0000F8B0  2010 0001:0000F8C5  2012 0001:0000F925  2015 0001:0000F92C
  2016 0001:0000F944  2017 0001:0000F959  2019 0001:0000F9B9  2024 0001:0000F9C0
  2025 0001:0000F9E0  2026 0001:0000F9EE  2027 0001:0000F9FC  2028 0001:0000FA03
  2030 0001:0000FA10  2031 0001:0000FA2D  2032 0001:0000FA3C  2033 0001:0000FA4F
  2036 0001:0000FA64  2037 0001:0000FA77  2038 0001:0000FA8A  2039 0001:0000FA96
  2042 0001:0000FAB8  2043 0001:0000FABF  2045 0001:0000FAD4  2047 0001:0000FB07
  2052 0001:0000FB10  2054 0001:0000FB31  2055 0001:0000FB39  2056 0001:0000FB4F
  2057 0001:0000FB6A  2058 0001:0000FB7F  2059 0001:0000FB92  2060 0001:0000FB98
  2062 0001:0000FBBD  2065 0001:0000FBC4  2066 0001:0000FBCA  2067 0001:0000FBD7
  2071 0001:0000FBDC  2072 0001:0000FBE8  2081 0001:0000FBEC  2082 0001:0000FC0B
  2083 0001:0000FC0F  2084 0001:0000FC18  2086 0001:0000FC59  2087 0001:0000FC7B
  2090 0001:0000FCF3  2092 0001:0000FCF9  2093 0001:0000FD41  2096 0001:0000FD48
  2097 0001:0000FD55  2098 0001:0000FD60  2100 0001:0000FD89  2102 0001:0000FDB1
  2105 0001:0000FDE0  2106 0001:0000FDE3  2107 0001:0000FDEA  2108 0001:0000FDF4
  2109 0001:0000FDF9  2111 0001:0000FE01  2112 0001:0000FE08  2116 0001:0000FE0C
  2117 0001:0000FE11  2122 0001:0000FE14  2123 0001:0000FE1C  2124 0001:0000FE2B
  2125 0001:0000FE3C  2126 0001:0000FE4E  2127 0001:0000FE63  2128 0001:0000FE8F
  2129 0001:0000FE9D  2131 0001:0000FEA1  2132 0001:0000FEAA  2135 0001:0000FEB0
  2136 0001:0000FEB3  2138 0001:0000FEBA  2139 0001:0000FEC0  2140 0001:0000FEC4
  2145 0001:0000FEC8  2146 0001:0000FED4  2147 0001:0000FEE2  2148 0001:0000FEF0
  2149 0001:0000FEFA  2153 0001:0000FF27  2154 0001:0000FF3F  2155 0001:0000FF4A
  2156 0001:0000FF60  2157 0001:0000FF76  2160 0001:0000FF87  2162 0001:0000FF9D
  2165 0001:0000FFA4  2166 0001:0000FFAA  2167 0001:0000FFC0  2171 0001:0000FFC4
  2172 0001:0000FFCD  2176 0001:0000FFD0  2177 0001:0000FFEC  2180 0001:0000FFF0
  2181 0001:0000FFF3  2182 0001:0000FFFA  2183 0001:00010001  2188 0001:00010004
  2189 0001:0001000B  2190 0001:00010011  2193 0001:00010038  2194 0001:00010049
  2196 0001:00010053  2201 0001:0001005C  2202 0001:00010061  2205 0001:00010085
  2206 0001:00010093  2207 0001:000100B0  2208 0001:000100C8  2209 0001:000100D7
  2210 0001:000100F2  2212 0001:00010107  2219 0001:00010118  2220 0001:00010132
  2221 0001:00010148  2223 0001:00010154  2224 0001:00010164  2225 0001:0001016A
  2229 0001:0001017C  2230 0001:00010182  2236 0001:00010190  2237 0001:000101B2
  2238 0001:000101C0  2239 0001:000101DF  2241 0001:000101F5  2242 0001:0001020E
  2243 0001:00010223  2244 0001:0001022F  2245 0001:0001023D  2247 0001:00010258
  2250 0001:0001026E  2251 0001:0001027C  2254 0001:00010288  2255 0001:00010290
  2257 0001:00010293  2258 0001:000102A2  2260 0001:000102AE  2264 0001:000102B8
  2265 0001:000102C1  2277 0001:000102C8  2278 0001:000102DF  2279 0001:000102FE
  2280 0001:0001031D  2281 0001:00010323  2282 0001:00010329  2283 0001:0001033D
  2285 0001:0001037B  2286 0001:00010392  2287 0001:000103A0  2290 0001:000103FB
  2292 0001:00010417  2298 0001:00010420  2299 0001:0001042C  2300 0001:0001043A
  2301 0001:0001044F  2302 0001:00010460  2303 0001:0001046C  2304 0001:00010470
  2309 0001:00010478  2310 0001:0001047E  2311 0001:00010481  2312 0001:0001048A
  2313 0001:0001049F  2314 0001:000104AC  2315 0001:000104AE  2316 0001:000104B0
  2317 0001:000104B6  2320 0001:000104BC  2321 0001:000104C2  2322 0001:000104DA
  2323 0001:000104EE  2326 0001:000104F4  2327 0001:000104FB  2328 0001:00010519
  2329 0001:00010523  2330 0001:00010531  2332 0001:00010559  2335 0001:0001056B
  2338 0001:00010570  2339 0001:00010573  2340 0001:0001057B  2341 0001:00010581
  2342 0001:00010588  2344 0001:0001058F  2350 0001:00010594  2351 0001:000105A2
  2356 0001:000105A4  2357 0001:000105AD  2358 0001:000105C7  2360 0001:000105DF
  2361 0001:000105EB  2362 0001:000105F9  2363 0001:0001060C  2364 0001:0001061D
  2365 0001:0001062A  2367 0001:00010633  2368 0001:00010639  2369 0001:00010642
  2371 0001:00010655  2374 0001:0001065C  2375 0001:00010665  2376 0001:00010672
  2377 0001:0001067E  2379 0001:00010687  2384 0001:0001068C  2385 0001:00010695
  2387 0001:000106A0  2388 0001:000106BF  2392 0001:000106CF  2393 0001:000106EF
  2394 0001:000106FC  2399 0001:00010704  2400 0001:0001070D  2401 0001:00010718
  2402 0001:00010738  2403 0001:00010745  2406 0001:0001074C  2407 0001:00010752
  2408 0001:0001075F  2409 0001:00010770  2410 0001:00010772  2413 0001:00010778
  2414 0001:0001077E  2415 0001:0001078B  2416 0001:00010799  2417 0001:0001079B
  2418 0001:000107A8  2419 0001:000107AA  2422 0001:000107B0  2423 0001:000107B6
  2424 0001:000107C3  2425 0001:000107D2  2426 0001:000107D4  2429 0001:000107D8
  2430 0001:000107DE  2431 0001:000107E7  2434 0001:000107F7  2435 0001:00010807
  2439 0001:0001080D  2440 0001:00010818  2444 0001:00010826  2445 0001:00010831
  2448 0001:0001083C  2454 0001:00010840  2455 0001:00010857  2456 0001:00010866
  2457 0001:00010870  2458 0001:0001088B  2460 0001:00010891  2461 0001:000108A0
  2462 0001:000108BB  2465 0001:000108C7  2466 0001:000108E2  2467 0001:000108F1
  2475 0001:000108FB  2480 0001:00010904  2481 0001:0001090A  2482 0001:0001092A
  2483 0001:00010933  2485 0001:00010942  2486 0001:00010955  2487 0001:00010959
  2489 0001:0001095B  2490 0001:00010966  2492 0001:00010971  2495 0001:00010974
  2496 0001:00010975  2497 0001:00010991  2500 0001:00010994  2501 0001:00010995
  2502 0001:000109AF  2507 0001:000109B4  2508 0001:000109BB  2509 0001:000109BD
  2510 0001:000109CA  2511 0001:000109D3  2513 0001:000109DC  2516 0001:000109E0
  2517 0001:000109E6  2518 0001:000109EF  2519 0001:000109FC  2524 0001:00010A00
  2525 0001:00010A04  2526 0001:00010A06  2527 0001:00010A0D  2529 0001:00010A1B
  2530 0001:00010A1D  2532 0001:00010A32  2535 0001:00010A38  2536 0001:00010A3F
  2537 0001:00010A4D  2538 0001:00010A5A  2541 0001:00010A60  2542 0001:00010A66
  2543 0001:00010A74  2549 0001:00010A78  2550 0001:00010A85  2551 0001:00010A90
  2552 0001:00010A93  2553 0001:00010AA3  2554 0001:00010AAF  2555 0001:00010AB5
  2556 0001:00010AC0  2558 0001:00010ACD  2563 0001:00010AD4  2564 0001:00010AD8
  2565 0001:00010AEB  2566 0001:00010B06  2567 0001:00010B11  2568 0001:00010B17
  2569 0001:00010B1E  2572 0001:00010B24  2573 0001:00010B2A  2574 0001:00010B45
  2575 0001:00010B50  2576 0001:00010B59  2586 0001:00010B5C  2587 0001:00010B70
  2588 0001:00010B79  2589 0001:00010B82  2590 0001:00010B8F  2591 0001:00010BA2
  2592 0001:00010BBD  2596 0001:00010BCF  2601 0001:00010BE8  2604 0001:00010BFF
  2605 0001:00010C18  2606 0001:00010C23  2607 0001:00010C2D  2608 0001:00010C44
  2609 0001:00010C54  2612 0001:00010C60  2613 0001:00010C72  2614 0001:00010C7B
  2616 0001:00010C87  2618 0001:00010C93  2619 0001:00010C9F  2620 0001:00010CAB
  2621 0001:00010CB2  2622 0001:00010CB9  2623 0001:00010CC3  2624 0001:00010CCA
  2625 0001:00010CE8  2628 0001:00010CF4  2629 0001:00010CFA  2630 0001:00010D03
  2634 0001:00010D08  2635 0001:00010D0E  2647 0001:00010D10  2649 0001:00010D33
  2650 0001:00010D40  2651 0001:00010D67  2657 0001:00010D74  2659 0001:00010D82
  2661 0001:00010D8E  2662 0001:00010D9C  2663 0001:00010DB6  2664 0001:00010DBF
  2665 0001:00010DC8  2666 0001:00010DCE  2667 0001:00010DD9  2668 0001:00010DEC
  2669 0001:00010DF0  2671 0001:00010DF4  2672 0001:00010E07  2675 0001:00010E0C
  2681 0001:00010E64  2687 0001:00010E78  2688 0001:00010E80  2689 0001:00010E91
  2690 0001:00010E98  2691 0001:00010E9E  2692 0001:00010EA9  2693 0001:00010EB4
  2694 0001:00010EBE  2696 0001:00010ED4  2697 0001:00010EDE  2698 0001:00010EE7
  2699 0001:00010EF0  2700 0001:00010EFA  2701 0001:00010F08  2703 0001:00010F2F
  2704 0001:00010F38  2705 0001:00010F48  2706 0001:00010F60  2707 0001:00010F79
  2708 0001:00010F98  2710 0001:00010FB3  2711 0001:00010FBE  2714 0001:00010FDF
  2716 0001:00010FED  2718 0001:00010FF8  2721 0001:00011001  2729 0001:00011008
  2730 0001:00011010  2731 0001:0001101D  2732 0001:00011028  2733 0001:00011032
  2734 0001:0001103C  2735 0001:0001104A  2736 0001:00011053  2737 0001:00011060
  2738 0001:00011080  2739 0001:0001108A  2740 0001:00011094  2741 0001:000110A1
  2742 0001:000110A9  2743 0001:000110B7  2744 0001:000110BA  2746 0001:000110C3
  2748 0001:000110D9  2749 0001:000110E8  2751 0001:00011101  2754 0001:00011108
  2755 0001:0001110B  2756 0001:00011113  2757 0001:00011119  2759 0001:00011120
  2763 0001:00011124  2764 0001:0001112C  2765 0001:00011132  2767 0001:00011137
  2770 0001:00011138  2771 0001:0001113B  2772 0001:00011143  2773 0001:00011149
  2775 0001:00011150  2778 0001:00011154  2779 0001:0001115A  2780 0001:00011162
  2781 0001:00011171  2782 0001:00011178  2784 0001:0001117F  2787 0001:00011184
  2788 0001:0001118A  2789 0001:00011192  2790 0001:000111A1  2791 0001:000111A8
  2793 0001:000111AF  2796 0001:000111B4  2797 0001:000111B7  2798 0001:000111BF
  2799 0001:000111C5  2801 0001:000111CC  2804 0001:000111D0  2805 0001:000111D3
  2806 0001:000111DB  2807 0001:000111E1  2808 0001:000111E8  2810 0001:000111EF
  2813 0001:000111F4  2814 0001:000111F7  2815 0001:000111FF  2816 0001:00011205
  2818 0001:0001120C  2822 0001:00011210  2823 0001:00011219  2826 0001:0001121C
  2827 0001:0001121F  2829 0001:00011225  2831 0001:00011232  2832 0001:00011242
  2835 0001:00011244  2836 0001:00011247  2837 0001:0001124F  2838 0001:00011255
  2840 0001:0001125C  2843 0001:00011260  2844 0001:00011266  2845 0001:00011271
  2846 0001:00011284  2847 0001:0001128F  2849 0001:00011296  2852 0001:000112A0
  2853 0001:000112A3  2854 0001:000112AB  2855 0001:000112B1  2857 0001:000112B8
  2861 0001:000112BC  2862 0001:000112C4  2863 0001:000112CA  2865 0001:000112CF
  2869 0001:000112D0  2870 0001:000112D9  2871 0001:000112E4  2872 0001:000112F1
  2873 0001:000112FA  2877 0001:00011300  2878 0001:0001130D  2879 0001:00011321
  2880 0001:00011330  2882 0001:00011337  2886 0001:00011340  2887 0001:0001134D
  2888 0001:00011361  2889 0001:00011375  2890 0001:0001137C  2893 0001:00011384
  2894 0001:00011385  2895 0001:0001139F  2898 0001:000113A4  2899 0001:000113A5
  2900 0001:000113BF  2906 0001:000113C4  2907 0001:000113CB  2908 0001:000113D5
  2909 0001:000113DB  2911 0001:00011408  2912 0001:0001140E  2913 0001:0001142A
  2918 0001:00011430  2919 0001:00011436  2920 0001:0001144B  2921 0001:00011453
  2922 0001:00011459  2924 0001:00011469  2925 0001:00011472  2928 0001:00011478
  2929 0001:0001147B  2930 0001:00011482  2931 0001:00011489  2934 0001:0001148C
  2935 0001:0001148F  2936 0001:00011496  2937 0001:0001149D  2940 0001:000114A0
  2941 0001:000114BA  2943 0001:000114F4  2944 0001:000114FA  2945 0001:00011509
  2946 0001:00011513  2948 0001:00011537  2951 0001:00011540  2952 0001:00011543
  2953 0001:0001154A  2954 0001:00011551  2957 0001:00011554  2958 0001:00011557
  2959 0001:0001155E  2960 0001:00011565  2963 0001:00011568  2964 0001:0001156B
  2965 0001:00011572  2966 0001:00011579  2969 0001:0001157C  2970 0001:0001157F
  2971 0001:00011586  2972 0001:00011593  2975 0001:00011598  2976 0001:0001159B
  2977 0001:000115A2  2978 0001:000115BF  2979 0001:000115C6  2981 0001:000115D1
  2984 0001:000115D4  2985 0001:000115D7  2986 0001:000115DE  2987 0001:000115FB
  2988 0001:00011602  2990 0001:0001160D  3030 0001:00011748  3032 0001:0001175D
  3036 0001:0001176A  3037 0001:00011793  3040 0001:0001179C  3041 0001:000117A7
  3042 0001:000117B2  3043 0001:000117C9  3046 0001:000117CC  3047 0001:000117D0
  3048 0001:000117DD  3049 0001:000117E8  3050 0001:000117F5  3052 0001:00011803
  3053 0001:00011814  3097 0001:00011818  3098 0001:00011822  3099 0001:0001182B
  3100 0001:00011837  3101 0001:0001183F  3104 0001:00011844  3105 0001:0001184E
  3106 0001:00011857  3107 0001:00011863  3108 0001:0001186B  3111 0001:00011870
  3112 0001:00011876  3113 0001:00011887  3114 0001:0001188D  3116 0001:0001189C
  3121 0001:000118A0  3122 0001:000118B2  3123 0001:000118BB  3124 0001:000118E1
  3127 0001:000118E4  3128 0001:000118EF  3129 0001:000118F7  3130 0001:0001190E
  3135 0001:00011914  3136 0001:00011920  3137 0001:0001192C  3139 0001:00011938
  3140 0001:00011945  3141 0001:0001194B  3142 0001:0001195F  3143 0001:0001196B
  3146 0001:00011974  3147 0001:00011977  3148 0001:0001197B  3149 0001:00011984
  3150 0001:0001198E  3152 0001:00011995  3156 0001:00011998  3157 0001:000119A2
  3167 0001:000119A4  3168 0001:000119BB  3169 0001:000119C4  3170 0001:000119D5
  3171 0001:000119DF  3172 0001:000119E6  3173 0001:000119EA  3174 0001:000119EE
  3175 0001:00011A01  3176 0001:00011A34  3179 0001:00011A3C  3180 0001:00011A47
  3181 0001:00011A4F  3182 0001:00011A56  3183 0001:00011A6D  3184 0001:00011A77
  3186 0001:00011A7E  3187 0001:00011A95  3192 0001:00011A98  3193 0001:00011A9C
  3194 0001:00011A9E  3195 0001:00011AA5  3196 0001:00011ABB  3197 0001:00011AC7
  3198 0001:00011ACD  3199 0001:00011ADA  3200 0001:00011ADF  3205 0001:00011AE4
  3206 0001:00011AE8  3207 0001:00011AED  3208 0001:00011AF4  3209 0001:00011B06
  3210 0001:00011B16  3211 0001:00011B32  3212 0001:00011B4A  3213 0001:00011B54
  3216 0001:00011B5D  3218 0001:00011B6C  3221 0001:00011B70  3222 0001:00011B76
  3223 0001:00011B7D  3224 0001:00011B87  3227 0001:00011B8C  3228 0001:00011B92
  3229 0001:00011B9B  3230 0001:00011BA2  3232 0001:00011BA5  3237 0001:00011BA8
  3238 0001:00011BAE  3239 0001:00011BCA  3241 0001:00011BCF  3242 0001:00011BD8
  3244 0001:00011C11  3246 0001:00011C1A  3254 0001:00011C20  3255 0001:00011C31
  3256 0001:00011C3B  3257 0001:00011C47  3259 0001:00011C73  3260 0001:00011C76
  3261 0001:00011C79  3262 0001:00011C82  3263 0001:00011C9C  3265 0001:00011CB0
  3266 0001:00011CBF  3267 0001:00011CCD  3268 0001:00011CD7  3269 0001:00011CE1
  3272 0001:00011CFE  3273 0001:00011D09  3274 0001:00011D24  3276 0001:00011D44
  3277 0001:00011D53  3279 0001:00011D61  3280 0001:00011D6B  3281 0001:00011D75
  3283 0001:00011D7F  3284 0001:00011D8A  3285 0001:00011DA5  3287 0001:00011DC5
  3289 0001:00011DEF  3294 0001:00011DFF  3295 0001:00011E14  3296 0001:00011E36
  3298 0001:00011E5B  3303 0001:00011E86  3304 0001:00011E9B  3305 0001:00011EBD
  3308 0001:00011EE2  3309 0001:00011EF5  3310 0001:00011F07  3312 0001:00011F3E
  3317 0001:00011F71  3319 0001:00011F81  3320 0001:00011F8F  3329 0001:00011F98
  3330 0001:00011FA7  3331 0001:00011FBA  3332 0001:00011FC6  3334 0001:00012008
  3335 0001:00012021  3336 0001:0001202E  3337 0001:00012037  3338 0001:00012051
  3340 0001:00012065  3341 0001:00012074  3342 0001:00012082  3343 0001:0001208C
  3344 0001:00012096  3345 0001:000120A6  3346 0001:000120BB  3347 0001:000120BE
  3348 0001:000120C8  3349 0001:000120E2  3352 0001:000120FB  3353 0001:0001211C
  3356 0001:00012141  3357 0001:0001214A  3358 0001:0001216B  3361 0001:00012190
  3362 0001:000121A0  3363 0001:000121AE  3366 0001:000121E1  3370 0001:000121F1
  3371 0001:000121FA  3372 0001:0001221B  3376 0001:0001223D  3377 0001:00012250
  3378 0001:00012262  3380 0001:0001229C  3384 0001:000122C9  3386 0001:000122D9
  3387 0001:000122E5  3388 0001:000122F2  3398 0001:000122FC  3400 0001:0001230E
  3401 0001:00012310  3402 0001:00012329  3403 0001:00012332  3404 0001:0001234A
  3406 0001:0001236D  3407 0001:00012373  3409 0001:0001238F  3411 0001:00012394
  3412 0001:000123A0  3413 0001:000123A6  3414 0001:000123AD  3415 0001:000123B3
  3416 0001:000123BA  3417 0001:000123C0  3419 0001:000123C9  3420 0001:000123D0
  3421 0001:000123D7  3427 0001:000123E0  3428 0001:000123F4  3429 0001:000123FF
  3431 0001:00012429  3432 0001:00012435  3434 0001:00012439  3438 0001:0001245B
  3440 0001:0001246B  3447 0001:00012474  3448 0001:0001248F  3449 0001:0001249A
  3451 0001:000124B9  3452 0001:000124BF  3455 0001:000124DF  3456 0001:000124E5
  3457 0001:000124F5  3458 0001:000124F9  3461 0001:00012520  3462 0001:00012541
  3463 0001:0001254E  3474 0001:00012558  3475 0001:0001257F  3476 0001:0001258C
  3477 0001:00012596  3478 0001:000125A5  3480 0001:000125B3  3481 0001:000125BD
  3482 0001:000125CF  3483 0001:000125FF  3496 0001:00012630  3498 0001:00012662
  3504 0001:0001266C  3505 0001:0001268C  3506 0001:00012696  3507 0001:000126A8
  3508 0001:000126BE  3510 0001:000126C4  3511 0001:000126D1  3512 0001:000126DE
  3513 0001:00012702  3514 0001:0001270F  3515 0001:0001271C  3518 0001:00012742
  3519 0001:00012760  3530 0001:0001276C  3532 0001:0001279C  3534 0001:000127AF
  3536 0001:000127D1  3539 0001:000127E7  3540 0001:000127F0  3541 0001:0001281E
  3542 0001:0001282A  3543 0001:00012831  3544 0001:0001283A  3545 0001:00012846
  3546 0001:0001284E  3547 0001:00012858  3550 0001:00012860  3551 0001:00012866
  3552 0001:0001286F  3553 0001:0001287B  3555 0001:00012883  3556 0001:00012890
  3557 0001:0001289D  3558 0001:000128BD  3559 0001:000128DC  3560 0001:000128EA
  3561 0001:0001290F  3564 0001:00012944  3565 0001:00012968  3567 0001:00012989
  3569 0001:000129A8  3571 0001:000129BB  3572 0001:000129C1  3573 0001:000129D4
  3574 0001:000129DA  3575 0001:000129DE  3579 0001:000129E2  3580 0001:000129E9
  3581 0001:00012A07  3584 0001:00012A18  3585 0001:00012A35  3588 0001:00012A44
  3590 0001:00012A52  3591 0001:00012A5C  3592 0001:00012A61  3593 0001:00012A75
  3594 0001:00012A7C  3595 0001:00012A8F  3596 0001:00012AA0  3599 0001:00012AA8
  3601 0001:00012AC0  3602 0001:00012AC7  3603 0001:00012AE2  3607 0001:00012AFD
  3608 0001:00012B02  3610 0001:00012B22  3611 0001:00012B29  3612 0001:00012B41
  3615 0001:00012B57  3618 0001:00012B6A  3619 0001:00012B72  3623 0001:00012B7F
  3624 0001:00012B8D  3628 0001:00012B9A  3629 0001:00012BA3  3633 0001:00012BB0
  3634 0001:00012BBF  3638 0001:00012BCA  3639 0001:00012BD1  3640 0001:00012BDA
  3641 0001:00012C0D  3647 0001:00012C18  3648 0001:00012C24  3650 0001:00012C54
  3670 0001:00012C5C  3671 0001:00012C82  3672 0001:00012C8D  3676 0001:00012CBF
  3677 0001:00012CC3  3680 0001:00012CDF  3681 0001:00012CE3  3685 0001:00012D02
  3686 0001:00012D1A  3687 0001:00012D33  3688 0001:00012D3D  3691 0001:00012D5B
  3692 0001:00012D65  3693 0001:00012D75  3696 0001:00012D88  3697 0001:00012D8E
  3699 0001:00012D99  3700 0001:00012DB1  3701 0001:00012DC8  3703 0001:00012DD9
  3704 0001:00012E02  3718 0001:00012E0C  3719 0001:00012E23  3720 0001:00012E30
  3721 0001:00012E49  3722 0001:00012E53  3723 0001:00012E57  3724 0001:00012E6C
  3725 0001:00012E76  3728 0001:00012E90  3729 0001:00012E96  3731 0001:00012EB0
  3732 0001:00012EC5  3733 0001:00012ED2  3739 0001:00012F33  3740 0001:00012F37
  3741 0001:00012F3D  3743 0001:00012F54  3744 0001:00012F69  3748 0001:00012F80
  3749 0001:00012F86  3751 0001:00012F9D  3752 0001:00012FB2  3756 0001:00012FC7
  3757 0001:00012FD1  3762 0001:00012FDC  3763 0001:00012FF4  3764 0001:00013003
  3765 0001:0001300C  3766 0001:00013041  3769 0001:00013048  3770 0001:00013053
  3771 0001:0001305B  3772 0001:00013072  3776 0001:00013078  3777 0001:00013080
  3781 0001:00013084  3782 0001:0001308A  3786 0001:0001308C  3787 0001:00013094
  3791 0001:00013098  3792 0001:0001309E  3796 0001:000130A0  3797 0001:000130A6
  3801 0001:000130A8  3802 0001:000130AE  3806 0001:000130B0  3807 0001:000130B8
  3811 0001:000130BC  3812 0001:000130C2  3816 0001:000130C4  3817 0001:000130CA
  3822 0001:000130CC  3823 0001:000130D0  3824 0001:000130F2  3839 0001:000130F8
  3840 0001:0001310B  3841 0001:00013119  3842 0001:00013128  3843 0001:00013136
  3844 0001:00013144  3845 0001:00013159  3846 0001:00013169  3847 0001:00013174
  3848 0001:0001318B  3849 0001:000131A2  3851 0001:000131B0  3858 0001:000131F0
  3859 0001:000131FE  3860 0001:00013206  3862 0001:0001321C  3866 0001:00013228
  3867 0001:0001322B  3868 0001:00013232  3869 0001:0001324A  3873 0001:0001324C
  3874 0001:00013263  3875 0001:0001326C  3876 0001:0001327E  3878 0001:00013286
  3880 0001:00013292  3881 0001:00013299  3882 0001:000132AB  3883 0001:000132BD
  3884 0001:000132CD  3885 0001:000132D6  3886 0001:000132DF  3887 0001:000132E8
  3888 0001:000132F2  3889 0001:000132FC  3890 0001:00013305  3891 0001:0001330E
  3892 0001:00013315  3893 0001:0001331C  3894 0001:00013323  3895 0001:00013342
  3898 0001:00013350  3899 0001:0001335B  3900 0001:00013366  3907 0001:0001336C
  3908 0001:00013377  3909 0001:0001337F  3910 0001:0001338E  3911 0001:000133A5
  3916 0001:000133A8  3917 0001:000133AB  3918 0001:000133B2  3919 0001:000133BD
  3920 0001:000133CA  3922 0001:000133CE  3923 0001:000133D0  3924 0001:000133DD
  3928 0001:000133E0  3929 0001:00013409  3933 0001:0001347F  3939 0001:00013488
  3940 0001:00013490  3941 0001:0001349B  3942 0001:000134A2  3944 0001:000134AB
  3945 0001:000134B4  3946 0001:000134CF  3947 0001:000134D6  3948 0001:000134DC
  3949 0001:000134F4  3950 0001:000134F6  3951 0001:0001350B  3952 0001:00013519
  3953 0001:00013527  3954 0001:00013534  3955 0001:0001353E  3956 0001:0001354B
  3957 0001:00013555  3958 0001:0001355E  3959 0001:0001357B  3960 0001:00013589
  3962 0001:000135CF  3963 0001:000135D8  3965 0001:000135E6  3969 0001:00013606
  3975 0001:0001362A  3976 0001:00013638  3977 0001:0001364A  3979 0001:00013658
  3980 0001:00013672  3981 0001:00013687  3983 0001:000136BC  3984 0001:000136D2
  3988 0001:000136DC  3989 0001:000136E5  3990 0001:000136F0  3991 0001:000136FD
  3992 0001:00013706  3995 0001:0001370C  3996 0001:00013712  3997 0001:00013720
  3998 0001:00013729  3999 0001:00013734  4000 0001:00013743  4001 0001:00013753
  4005 0001:00013769  4006 0001:00013774  4007 0001:00013783  4008 0001:00013792
  4011 0001:000137A9  4012 0001:000137B4  4015 0001:000137B8  4016 0001:000137BE
  4019 0001:000137D9  4025 0001:000137E0  4026 0001:000137E9  4027 0001:000137EE
  4028 0001:000137F4  4030 0001:00013803  4031 0001:0001380A  4032 0001:00013815
  4033 0001:0001381E  4034 0001:0001384C  4036 0001:00013855  4039 0001:0001385C
  4040 0001:0001385D  4041 0001:00013877  4044 0001:0001387C  4045 0001:0001387D
  4046 0001:00013897  4053 0001:0001389C  4054 0001:000138B3  4055 0001:000138C3
  4056 0001:000138D2  4057 0001:000138EA  4058 0001:000138F4  4060 0001:000138FF
  4061 0001:00013917  4062 0001:00013923  4063 0001:0001392D  4065 0001:00013938
  4066 0001:00013942  4067 0001:0001394C  4068 0001:0001395A  4069 0001:00013965
  4070 0001:0001397D  4071 0001:0001398C  4072 0001:000139A1  4074 0001:000139B2
  4075 0001:000139C0  4076 0001:000139E6  4081 0001:000139FD  4083 0001:00013A0F
  4084 0001:00013A1B  4085 0001:00013A3F  4086 0001:00013A57  4087 0001:00013A6E
  4090 0001:00013A7E  4095 0001:00013A88  4096 0001:00013A99  4097 0001:00013AA6
  4098 0001:00013AAF  4099 0001:00013ABE  4100 0001:00013AC2  4101 0001:00013AE0
  4102 0001:00013AF3  4103 0001:00013AFE  4104 0001:00013B07  4107 0001:00013B11
  4111 0001:00013B1C  4112 0001:00013B2D  4113 0001:00013B3E  4114 0001:00013B4F
  4115 0001:00013B60  4121 0001:00013B68  4122 0001:00013B76  4123 0001:00013B8B
  4124 0001:00013B92  4125 0001:00013BB8  4126 0001:00013BC1  4127 0001:00013BC8
  4128 0001:00013BCF  4129 0001:00013BDF  4130 0001:00013BEB  4132 0001:00013BF4
  4133 0001:00013BF8  4134 0001:00013C08  4137 0001:00013C1D  4138 0001:00013C2D
  4140 0001:00013C37  4142 0001:00013C4F  4143 0001:00013C56  4148 0001:00013C60
  4149 0001:00013C69  4151 0001:00013CA0  4152 0001:00013CAC  4153 0001:00013CB6
  4155 0001:00013CC1  4156 0001:00013CCF  4158 0001:00013CD6  4159 0001:00013CDB
  4160 0001:00013CE8  4162 0001:00013D0D  4163 0001:00013D17  4165 0001:00013D30
  4166 0001:00013D44  4169 0001:00013D58  4174 0001:00013D60  4175 0001:00013D63
  4176 0001:00013D6A  4177 0001:00013D7A  4178 0001:00013D81  4181 0001:00013D84
  4182 0001:00013D87  4183 0001:00013D93  4187 0001:00013D98  4188 0001:00013DA1
  4191 0001:00013DA4  4192 0001:00013DAA  4193 0001:00013DB5  4194 0001:00013DBE
  4196 0001:00013DC5  4200 0001:00013DC8  4201 0001:00013DD1  4204 0001:00013DD4
  4205 0001:00013DDA  4206 0001:00013DE5  4207 0001:00013DEE  4209 0001:00013DF5
  4213 0001:00013DF8  4214 0001:00013E01  4217 0001:00013E04  4218 0001:00013E07
  4219 0001:00013E12  4220 0001:00013E19  4224 0001:00013E1C  4225 0001:00013E25
  4228 0001:00013E28  4229 0001:00013E2B  4230 0001:00013E33  4231 0001:00013E38
  4232 0001:00013E3A  4233 0001:00013E45  4234 0001:00013E4A  4236 0001:00013E51
  4240 0001:00013E54  4241 0001:00013E59  4246 0001:00013E5C  4247 0001:00013E5F
  4248 0001:00013E6F  4249 0001:00013E76  4250 0001:00013E7A  4251 0001:00013E7E
  4252 0001:00013E84  4254 0001:00013E8E  4257 0001:00013E94  4258 0001:00013E9A
  4259 0001:00013EA5  4260 0001:00013EAD  4261 0001:00013EBF  4262 0001:00013EC5
  4263 0001:00013EC9  4264 0001:00013ED9  4267 0001:00013EE2  4269 0001:00013EE9
  4270 0001:00013EF3  4271 0001:00013EFE  4273 0001:00013F05  4277 0001:00013F08
  4278 0001:00013F10  4279 0001:00013F16  4281 0001:00013F1B  4284 0001:00013F1C
  4285 0001:00013F1F  4286 0001:00013F27  4287 0001:00013F2D  4289 0001:00013F34
  4292 0001:00013F38  4293 0001:00013F3B  4294 0001:00013F48  4295 0001:00013F4E
  4297 0001:00013F55  4300 0001:00013F58  4301 0001:00013F5B  4302 0001:00013F63
  4303 0001:00013F69  4305 0001:00013F70  4309 0001:00013F74  4310 0001:00013F7C
  4311 0001:00013F82  4313 0001:00013F87  4316 0001:00013F88  4317 0001:00013F8B
  4318 0001:00013F91  4319 0001:00013FA3  4320 0001:00013FB0  4321 0001:00013FBB
  4323 0001:00013FC3  4326 0001:00013FC8  4327 0001:00013FCB  4329 0001:00013FD1
  4331 0001:00013FDE  4332 0001:00013FEE  4335 0001:00013FF0  4336 0001:00013FF3
  4337 0001:00013FFB  4338 0001:00014001  4340 0001:00014008  4343 0001:0001400C
  4344 0001:0001400F  4345 0001:00014017  4346 0001:0001401D  4348 0001:00014024
  4351 0001:00014028  4352 0001:0001402B  4353 0001:00014033  4354 0001:00014039
  4356 0001:00014040  4359 0001:00014044  4360 0001:00014047  4361 0001:0001404F
  4362 0001:00014055  4364 0001:0001405C  4367 0001:00014060  4368 0001:00014063
  4369 0001:0001406B  4370 0001:00014071  4372 0001:00014078  4375 0001:0001407C
  4376 0001:0001407F  4377 0001:00014086  4378 0001:0001408D  4381 0001:00014090
  4382 0001:00014093  4383 0001:0001409A  4384 0001:000140A1  4387 0001:000140A4
  4388 0001:000140A7  4389 0001:000140B0  4390 0001:000140B7  4392 0001:000140CB
  4397 0001:000140D0  4398 0001:000140D3  4399 0001:000140DA  4400 0001:000140E5
  4401 0001:000140F2  4402 0001:000140F6  4403 0001:000140F8  4404 0001:00014105
  4405 0001:0001410C  4406 0001:00014116  4409 0001:00014118  4410 0001:0001411B
  4411 0001:00014122  4412 0001:0001412F  4415 0001:00014134  4416 0001:00014138
  4417 0001:0001413F  4418 0001:0001415C  4419 0001:00014163  4420 0001:00014176
  4422 0001:00014181  4425 0001:00014184  4426 0001:00014188  4427 0001:0001418F
  4428 0001:000141AC  4429 0001:000141B3  4430 0001:000141C3  4432 0001:000141CE
  4436 0001:000141D4  4437 0001:000141D9  4442 0001:000141DC  4443 0001:000141E3
  4444 0001:000141FA  4445 0001:000141FD  4446 0001:00014212  4447 0001:00014216
  4448 0001:0001422A  4449 0001:00014231  4450 0001:00014238  4452 0001:00014242
  4455 0001:0001424E  4458 0001:00014254  4460 0001:0001426E  4461 0001:00014293
  4462 0001:0001429E  4464 0001:000142A7  4465 0001:000142CD  4469 0001:000142D4
  4470 0001:000142D9  4474 0001:000142DC  4475 0001:000142E1  4478 0001:000142E4
  4479 0001:000142E7  4480 0001:000142F2  4481 0001:000142F9  4487 0001:000142FC
  4488 0001:00014303  4489 0001:0001430D  4490 0001:00014313  4492 0001:00014340
  4493 0001:00014346  4494 0001:0001434A  4495 0001:0001435D  4498 0001:0001436A
  4499 0001:0001437A  4501 0001:00014385  4504 0001:0001438C  4505 0001:00014396
  4506 0001:000143AE  4507 0001:000143C6  4508 0001:000143D4  4510 0001:000143EF
  4511 0001:000143FF  4513 0001:00014409  4519 0001:00014410  4520 0001:0001441D
  4521 0001:0001442A  4522 0001:00014434  4523 0001:0001443E  4524 0001:00014452
  4525 0001:00014481  4526 0001:00014498  4528 0001:000144A4  4530 0001:000144AC
  4531 0001:000144B9  4532 0001:000144C5  4534 0001:000144D6  4535 0001:000144F2
  4536 0001:000144FD  4538 0001:0001453B  4540 0001:00014550  4547 0001:00014558
  4553 0001:0001458B

Line numbers for mxMenus(mxMenus.pas) segment .text

   129 0001:00014C8C   130 0001:00014C96   131 0001:00014C99   132 0001:00014C9C
   134 0001:00014C9E   137 0001:00014CA0   138 0001:00014CA4   140 0001:00014CCA
   146 0001:00014CD0   148 0001:00014CE0   150 0001:00014D17   152 0001:00014D23
   153 0001:00014D2F   154 0001:00014D37   155 0001:00014D42   156 0001:00014D48
   157 0001:00014D52   158 0001:00014D59   162 0001:00014D61   164 0001:00014D69
   165 0001:00014D75   166 0001:00014D79   167 0001:00014D84   168 0001:00014D8A
   169 0001:00014D94   170 0001:00014D9B   173 0001:00014DA3   174 0001:00014DAE
   177 0001:00014DB9   180 0001:00014DC2   185 0001:00014DCC   186 0001:00014DD5
   187 0001:00014DDF   188 0001:00014DE6   190 0001:00014DFA   191 0001:00014E10
   195 0001:00014E12   196 0001:00014E2A   197 0001:00014E36   198 0001:00014E42
   199 0001:00014E4E   201 0001:00014E5B   202 0001:00014E67   206 0001:00014E9C
   207 0001:00014EA3   208 0001:00014EB1   211 0001:00014EB4   212 0001:00014EB5
   213 0001:00014ED0   216 0001:00014EE0   218 0001:00014EE9   219 0001:00014EF1
   220 0001:00014EFD   222 0001:00014F0A   232 0001:00014F10   233 0001:00014F24
   234 0001:00014F31   235 0001:00014F36   238 0001:00014F87   239 0001:00014F96
   240 0001:00014FA4   241 0001:00014FB2   242 0001:00014FB8   243 0001:00014FC8
   244 0001:00014FDB   245 0001:00014FEB   248 0001:00015028   249 0001:00015035
   250 0001:00015048   251 0001:00015058   254 0001:0001509E   258 0001:000150B4
   260 0001:000150CF   261 0001:000150DD   263 0001:00015100   266 0001:00015110
   270 0001:0001511C   271 0001:00015130   272 0001:00015134   274 0001:00015144
   275 0001:00015155   278 0001:0001518F   281 0001:000151A9   301 0001:000151B4
   302 0001:000151C7   303 0001:000151D6   304 0001:000151EE   305 0001:000151F6
   306 0001:000151FE   307 0001:00015208   308 0001:0001520E   310 0001:00015214
   311 0001:0001522E   312 0001:00015237   313 0001:00015240   314 0001:00015253
   315 0001:00015260   316 0001:00015286   318 0001:00015293   320 0001:000152A7
   321 0001:000152CD   324 0001:000152D8   325 0001:000152E4   326 0001:000152F6
   328 0001:00015304   329 0001:00015316   331 0001:0001532F   334 0001:0001533B
   335 0001:0001537F   341 0001:0001538E   342 0001:000153D2   345 0001:000153DF
   347 0001:00015410   349 0001:00015423   355 0001:0001542C   356 0001:0001543D
   357 0001:0001544A   358 0001:0001545B   359 0001:00015469   360 0001:00015472
   361 0001:00015483   362 0001:00015485   363 0001:00015493   364 0001:000154A8
   365 0001:000154BB   367 0001:000154D6   370 0001:000154FB   372 0001:00015514
   373 0001:0001552F   376 0001:00015538   377 0001:0001553B   379 0001:00015575
   381 0001:00015578   382 0001:000155AF   384 0001:000155BA   386 0001:000155DA
   390 0001:0001563F   391 0001:00015656   392 0001:0001565D   393 0001:00015663
   394 0001:00015671   395 0001:00015678   397 0001:0001568A   398 0001:0001568C
   399 0001:00015691   401 0001:0001569C   402 0001:000156A8   403 0001:000156B9
   404 0001:000156D2   405 0001:000156EB   408 0001:00015708   409 0001:00015712
   410 0001:0001571D   411 0001:0001572B   414 0001:00015761   415 0001:0001576D
   416 0001:0001577F   417 0001:0001578B   418 0001:0001579A   419 0001:000157A2
   420 0001:000157B1   421 0001:000157BD   422 0001:000157C7   424 0001:000157E8
   425 0001:000157FA   426 0001:00015810   428 0001:00015826   429 0001:0001582C
   432 0001:00015876   434 0001:000158C0   436 0001:000158D0   437 0001:000158FD
   438 0001:00015907   439 0001:0001592D   440 0001:0001593D   441 0001:0001594E
   443 0001:0001596E   444 0001:00015980   445 0001:00015996   448 0001:000159AC
   449 0001:000159C1   450 0001:000159D0   451 0001:000159D5   452 0001:000159E4
   453 0001:000159F3   454 0001:00015A00   455 0001:00015A0E   456 0001:00015A1D
   457 0001:00015A2B   458 0001:00015A3E   462 0001:00015A9B   464 0001:00015AAB
   467 0001:00015AEF   468 0001:00015AFF   469 0001:00015B14   470 0001:00015B1E
   471 0001:00015B2C   472 0001:00015B3A   473 0001:00015B4A   474 0001:00015B6B
   475 0001:00015B7D   476 0001:00015B93   478 0001:00015BA9   480 0001:00015BF0
   482 0001:00015C08   485 0001:00015C19   487 0001:00015C55   489 0001:00015C65
   490 0001:00015C6D   491 0001:00015C8B   492 0001:00015C91   493 0001:00015C9B
   494 0001:00015CA3   496 0001:00015CE0   497 0001:00015CF6   499 0001:00015D0C
   501 0001:00015D16   502 0001:00015D2C   503 0001:00015D3A   504 0001:00015D44
   505 0001:00015D54   506 0001:00015D68   509 0001:00015D84   510 0001:00015D94
   513 0001:00015DB2   514 0001:00015DDC   515 0001:00015DF0   516 0001:00015E06
   519 0001:00015E48   520 0001:00015E56   521 0001:00015E64   524 0001:00015E6F
   525 0001:00015E7C   526 0001:00015E98   527 0001:00015EAF   528 0001:00015ECB
   532 0001:00015F12   547 0001:00015F44   548 0001:00015F64   549 0001:00015F71
   550 0001:00015F9B   551 0001:00015FC5   552 0001:00015FDB   553 0001:00015FF6
   554 0001:00016003   555 0001:00016036   556 0001:0001606A   558 0001:00016072
   559 0001:00016075   561 0001:00016094   562 0001:000160D5   564 0001:000160F4
   565 0001:00016108   566 0001:00016112   567 0001:0001611C   568 0001:00016122
   569 0001:0001612E   570 0001:00016132   573 0001:00016145   574 0001:0001614C
   576 0001:00016151   577 0001:0001615F   578 0001:00016167   579 0001:00016174
   580 0001:00016183   583 0001:000161AB   584 0001:000161C7   587 0001:000161E0
   588 0001:000161F3   589 0001:00016203   590 0001:0001621A   592 0001:00016234
   593 0001:0001624E   594 0001:00016259   595 0001:00016276   596 0001:00016280
   597 0001:0001628B   598 0001:0001629D   599 0001:000162A8   600 0001:000162B6
   602 0001:000162D1   605 0001:000162E2   606 0001:000162F3   607 0001:000162FB
   608 0001:0001630B   610 0001:00016322   611 0001:00016328   612 0001:00016330
   615 0001:00016340   638 0001:000163E4   639 0001:000163F2   640 0001:00016400
   642 0001:00016443   643 0001:00016455   644 0001:00016459   645 0001:00016470
   646 0001:00016483   648 0001:0001648C   649 0001:0001649E   651 0001:000164CB
   653 0001:000164DD   656 0001:00016509   657 0001:0001650D   658 0001:00016513
   659 0001:00016517   661 0001:0001652A   662 0001:00016531   663 0001:00016543
   664 0001:00016558   665 0001:0001655C   666 0001:0001656B   667 0001:00016577
   668 0001:00016583   669 0001:00016589   670 0001:000165A0   672 0001:000165B4
   674 0001:000165C1   675 0001:000165C9   678 0001:000165DC   679 0001:000165EE
   680 0001:000165FB   683 0001:00016619   684 0001:00016623   685 0001:00016630
   687 0001:00016639   688 0001:0001663F   689 0001:00016651   690 0001:0001666C
   691 0001:00016686   692 0001:0001668C   693 0001:000166A6   694 0001:000166C3
   695 0001:000166D2   697 0001:000166E8   698 0001:000166F7   699 0001:00016701
   702 0001:00016709   704 0001:00016732   706 0001:00016746   709 0001:00016750
   710 0001:00016756   711 0001:0001676A   712 0001:00016773   715 0001:00016778
   716 0001:0001677B   717 0001:00016782   718 0001:00016790   722 0001:00016794
   723 0001:000167AD   724 0001:000167B6   725 0001:000167BF   726 0001:000167D0
   727 0001:000167D7   728 0001:000167DC   729 0001:000167E6   730 0001:000167F0
   731 0001:000167FA   732 0001:00016804   733 0001:0001680E   734 0001:00016818
   735 0001:0001681F   736 0001:00016831   737 0001:0001683A   738 0001:00016846
   739 0001:0001685A   740 0001:00016864   741 0001:0001689D   744 0001:000168A4
   745 0001:000168AF   746 0001:000168BA   747 0001:000168C3   748 0001:000168CF
   749 0001:000168DA   750 0001:000168F1   753 0001:000168F4   754 0001:000168F7
   755 0001:000168FE   756 0001:00016912   759 0001:00016914   760 0001:0001691D
   761 0001:00016928   762 0001:0001692D   764 0001:0001693E   767 0001:00016944
   768 0001:00016947   769 0001:0001695F   774 0001:00016964   775 0001:0001696B
   776 0001:00016974   777 0001:00016989   778 0001:00016991   779 0001:00016995
   780 0001:000169A0   782 0001:000169AD   783 0001:000169C4   788 0001:000169C8
   789 0001:000169CD   790 0001:000169CF   791 0001:000169D8   792 0001:000169DC
   793 0001:000169EB   795 0001:000169F3   800 0001:000169F8   801 0001:000169FB
   802 0001:00016A06   803 0001:00016A0F   804 0001:00016A1A   805 0001:00016A1E
   807 0001:00016A2A   809 0001:00016A3B   814 0001:00016A40   815 0001:00016A41
   816 0001:00016A43   817 0001:00016A4F   818 0001:00016A58   819 0001:00016A62
   820 0001:00016A66   822 0001:00016A73   824 0001:00016A83   825 0001:00016A8C
   835 0001:00016A90   836 0001:00016A9F   837 0001:00016AC0   838 0001:00016ACF
   839 0001:00016ADD   840 0001:00016AE5   841 0001:00016AF4   842 0001:00016B04
   843 0001:00016B1A   844 0001:00016B22   847 0001:00016B82   849 0001:00016B9B
   852 0001:00016BA4   853 0001:00016BA7   854 0001:00016BB7   857 0001:00016BBC
   858 0001:00016BC0   860 0001:00016BE5   864 0001:00016BE8   865 0001:00016BFD
   868 0001:00016C00   869 0001:00016C03   870 0001:00016C0B   871 0001:00016C11
   873 0001:00016C21   881 0001:00016C24   882 0001:00016C3A   883 0001:00016C4D
   884 0001:00016C52   885 0001:00016C63   886 0001:00016C6A   887 0001:00016C90
   888 0001:00016C96   889 0001:00016CAA   893 0001:00016D03   901 0001:00016D0C
   902 0001:00016D22   903 0001:00016D35   904 0001:00016D3A   905 0001:00016D4B
   906 0001:00016D52   907 0001:00016D78   908 0001:00016D81   909 0001:00016D92
   911 0001:00016DA0   913 0001:00016DC4   914 0001:00016DCA   915 0001:00016DDE
   920 0001:00016E37   923 0001:00016E40   924 0001:00016E44   925 0001:00016E65
   929 0001:00016E6C   930 0001:00016E75   931 0001:00016E8C   935 0001:00016E94
   936 0001:00016EA2   937 0001:00016EAC   940 0001:00016ED1   942 0001:00016ED9
   943 0001:00016EF3   947 0001:00016F08   948 0001:00016F15   950 0001:00016F3B
   951 0001:00016F53   957 0001:00016F68   959 0001:00016F7E   960 0001:00016F8D
   961 0001:00016F90   963 0001:00016FBD   965 0001:00016FC7   968 0001:00016FE6
   971 0001:00016FF0   972 0001:00016FFF   974 0001:0001701D   976 0001:0001702D
   984 0001:00017034   985 0001:0001703F   986 0001:00017045   987 0001:0001704E
   988 0001:00017054   991 0001:00017071   992 0001:00017080   993 0001:0001708E
   994 0001:0001709F   995 0001:000170B0   996 0001:000170B9   997 0001:000170C7
   998 0001:000170CC   999 0001:000170D5  1001 0001:000170DF  1002 0001:000170ED
  1003 0001:00017101  1004 0001:00017114  1005 0001:0001711A  1006 0001:0001713E
  1009 0001:00017150  1010 0001:00017163  1012 0001:00017177  1013 0001:0001717F
  1014 0001:0001718C  1015 0001:00017192  1016 0001:000171B2  1017 0001:000171C5
  1019 0001:000171DF  1023 0001:000171F7  1031 0001:00017204  1032 0001:00017210
  1033 0001:00017213  1034 0001:00017216  1036 0001:00017234  1037 0001:0001724B
  1038 0001:00017259  1039 0001:0001726A  1040 0001:00017270  1041 0001:00017292
  1042 0001:00017297  1043 0001:000172A3  1044 0001:000172AA  1045 0001:000172D7
  1046 0001:000172DD  1047 0001:000172F5  1050 0001:0001733A  1051 0001:0001734F
  1052 0001:0001735A  1054 0001:00017374  1055 0001:0001738A  1059 0001:000173A2
  1064 0001:000173B4  1065 0001:000173F5

Line numbers for mxPlacemnt(mxPlacemnt.pas) segment .text

   293 0001:000191A0   294 0001:000191B5   295 0001:000191C0   296 0001:000191CA
   297 0001:000191D4   298 0001:000191D8   299 0001:000191F3   300 0001:000191FB
   301 0001:0001920E   302 0001:00019218   303 0001:00019229   304 0001:0001922C
   305 0001:00019252   308 0001:00019260   309 0001:0001926C   310 0001:00019275
   311 0001:0001928E   312 0001:00019296   313 0001:0001929C   314 0001:000192A3
   316 0001:000192AA   317 0001:000192B2   318 0001:000192BA   319 0001:000192C2
   320 0001:000192D9   325 0001:000192E0   326 0001:000192E4   327 0001:000192EB
   328 0001:000192F2   329 0001:000192F8   330 0001:00019303   332 0001:0001930A
   335 0001:00019310   336 0001:00019316   337 0001:00019320   338 0001:00019323
   343 0001:00019328   344 0001:00019330   345 0001:0001933E   346 0001:00019348
   347 0001:00019353   348 0001:0001935A   349 0001:0001935F   350 0001:00019363
   354 0001:00019368   355 0001:0001936D   356 0001:00019375   359 0001:00019378
   360 0001:0001937C   361 0001:000193A0   362 0001:000193A2   365 0001:000193A8
   366 0001:000193AB   367 0001:000193C1   368 0001:000193C8   369 0001:000193DA
   370 0001:000193EA   371 0001:000193FC   372 0001:0001940C   373 0001:0001941E
   374 0001:0001942E   376 0001:0001943B   378 0001:00019448   381 0001:0001944C
   382 0001:00019450   383 0001:00019468   384 0001:0001946F   385 0001:00019481
   386 0001:00019493   388 0001:000194A5   391 0001:000194A8   392 0001:000194AB
   394 0001:000194C9   395 0001:000194DA   399 0001:000194DC   400 0001:000194E6
   403 0001:000194E8   404 0001:000194EB   405 0001:0001950C   408 0001:00019510
   409 0001:00019513   410 0001:0001951D   413 0001:00019520   414 0001:00019523
   415 0001:0001952A   416 0001:00019537   420 0001:0001953C   421 0001:00019544
   425 0001:00019548   426 0001:00019555   427 0001:00019575   429 0001:00019595
   430 0001:000195C3   431 0001:000195C6   432 0001:000195F0   434 0001:0001961A
   437 0001:00019626   438 0001:00019631   439 0001:00019641   440 0001:00019656
   442 0001:00019666   444 0001:00019676   448 0001:00019682   450 0001:00019691
   454 0001:0001969B   455 0001:000196A4   456 0001:000196B3   457 0001:000196B6
   458 0001:000196C7   459 0001:000196D7   460 0001:000196E8   461 0001:000196F8
   462 0001:00019709   463 0001:00019719   464 0001:0001972A   465 0001:0001973A
   466 0001:0001974B   467 0001:0001975B   468 0001:0001976C   469 0001:0001977C
   470 0001:0001978A   471 0001:00019797   472 0001:000197A8   476 0001:000197BA
   477 0001:000197C2   479 0001:000197C7   481 0001:000197CE   484 0001:000197D8
   485 0001:000197E7   486 0001:000197F0   487 0001:000197FE   489 0001:00019815
   491 0001:00019829   492 0001:0001983F   495 0001:00019848   496 0001:00019854
   497 0001:0001985E   498 0001:00019869   499 0001:0001989D   500 0001:000198AB
   502 0001:000198C2   504 0001:000198D6   507 0001:000198DC   508 0001:000198EB
   509 0001:000198FD   510 0001:00019904   511 0001:00019912   513 0001:00019929
   515 0001:0001993D   517 0001:00019944   518 0001:0001995A   531 0001:00019964
   532 0001:0001996B   534 0001:000199A9   535 0001:000199C2   536 0001:000199C9
   537 0001:000199DC   538 0001:000199F2   539 0001:000199F8   540 0001:00019A08
   541 0001:00019A2A   543 0001:00019A4F   544 0001:00019A6C   546 0001:00019A7F
   551 0001:00019A88   552 0001:00019A91   554 0001:00019AB7   555 0001:00019AC0
   556 0001:00019AD8   557 0001:00019AE1   558 0001:00019AE8   559 0001:00019AF6
   561 0001:00019B19   562 0001:00019B3E   564 0001:00019B70   566 0001:00019B81
   568 0001:00019B92   571 0001:00019B9C   572 0001:00019BA2   573 0001:00019BB2
   574 0001:00019BB5   575 0001:00019BBC   577 0001:00019BC3   582 0001:00019BC8
   583 0001:00019BD2   587 0001:00019BD5   590 0001:00019BD8   591 0001:00019BDE
   592 0001:00019BEA   594 0001:00019BF5   595 0001:00019C04   600 0001:00019C0B
   604 0001:00019C10   605 0001:00019C18   608 0001:00019C1C   609 0001:00019C22
   610 0001:00019C2E   611 0001:00019C39   612 0001:00019C43   616 0001:00019C48
   617 0001:00019C50   620 0001:00019C54   621 0001:00019C55   622 0001:00019C6F
   625 0001:00019C74   626 0001:00019C75   627 0001:00019C8F   630 0001:00019C94
   631 0001:00019CB1   633 0001:00019CC7   634 0001:00019CD1   635 0001:00019CE3
   636 0001:00019D01   638 0001:00019D1F   639 0001:00019D3D   642 0001:00019D6D
   643 0001:00019D7F   644 0001:00019D9D   646 0001:00019DBB   647 0001:00019DD1
   658 0001:00019DFC   659 0001:00019E27   662 0001:00019E60   663 0001:00019E78
   665 0001:00019E8A   666 0001:00019E90   670 0001:00019EC0   673 0001:00019EEE
   674 0001:00019F19   677 0001:00019F20   678 0001:00019F3C   680 0001:00019F4B
   681 0001:00019F55   683 0001:00019F73   685 0001:00019F7E   687 0001:00019FA7
   689 0001:00019FB6   691 0001:00019FC5   693 0001:00019FD4   695 0001:00019FE3
   697 0001:00019FF0   698 0001:00019FFC   702 0001:0001A00B   704 0001:0001A049
   707 0001:0001A050   708 0001:0001A053   709 0001:0001A05E   710 0001:0001A06A
   712 0001:0001A06F   715 0001:0001A074   719 0001:0001A078   720 0001:0001A089
   721 0001:0001A095   723 0001:0001A0AD   724 0001:0001A0B7   725 0001:0001A0C5
   727 0001:0001A0E8   730 0001:0001A0F8   733 0001:0001A100   734 0001:0001A122
   735 0001:0001A15D   738 0001:0001A168   739 0001:0001A179   740 0001:0001A185
   742 0001:0001A199   743 0001:0001A1A3   744 0001:0001A1B1   746 0001:0001A1D0
   749 0001:0001A1E0   752 0001:0001A1E8   753 0001:0001A204   754 0001:0001A238
   757 0001:0001A240   758 0001:0001A265   759 0001:0001A271   761 0001:0001A296
   762 0001:0001A2A0   763 0001:0001A2AE   765 0001:0001A2DE   768 0001:0001A313
   771 0001:0001A31C   772 0001:0001A33C   773 0001:0001A348   775 0001:0001A36A
   776 0001:0001A374   777 0001:0001A382   779 0001:0001A3AF   782 0001:0001A3E1
   788 0001:0001A3E8   789 0001:0001A40C   790 0001:0001A41C   791 0001:0001A426
   792 0001:0001A434   793 0001:0001A443   794 0001:0001A451   795 0001:0001A461
   796 0001:0001A477   799 0001:0001A50E   800 0001:0001A52D   802 0001:0001A542
   805 0001:0001A55F   808 0001:0001A591   811 0001:0001A5B0   812 0001:0001A5B8
   813 0001:0001A5CA   814 0001:0001A5D4   815 0001:0001A5E2   816 0001:0001A5F5
   817 0001:0001A5FD   818 0001:0001A609   820 0001:0001A61D   823 0001:0001A62D
   828 0001:0001A648   829 0001:0001A664   830 0001:0001A66B   831 0001:0001A675
   832 0001:0001A683   833 0001:0001A69E   834 0001:0001A6A6   835 0001:0001A6AD
   836 0001:0001A6B9   837 0001:0001A6DB   839 0001:0001A717   841 0001:0001A73B
   844 0001:0001A74A   846 0001:0001A75E   848 0001:0001A76E   849 0001:0001A798
   854 0001:0001A7CC   855 0001:0001A7D3   856 0001:0001A7E4   857 0001:0001A7F1
   859 0001:0001A7FF   860 0001:0001A808   864 0001:0001A80C   865 0001:0001A80F
   866 0001:0001A83B   867 0001:0001A83F   868 0001:0001A843   869 0001:0001A847
   870 0001:0001A84B   871 0001:0001A84F   872 0001:0001A853   873 0001:0001A857
   874 0001:0001A85B   877 0001:0001A85D   880 0001:0001A860   881 0001:0001A869
   882 0001:0001A876   883 0001:0001A879   884 0001:0001A8A5   885 0001:0001A8AA
   886 0001:0001A8AF   887 0001:0001A8B4   888 0001:0001A8B9   889 0001:0001A8BE
   890 0001:0001A8C3   891 0001:0001A8C8   894 0001:0001A8CB   896 0001:0001A8D7
   900 0001:0001A8DC   901 0001:0001A8DF   906 0001:0001A914   911 0001:0001A918
   912 0001:0001A92F   913 0001:0001A938   915 0001:0001A94A   916 0001:0001A960
   918 0001:0001A97C   921 0001:0001A984   922 0001:0001A98F   923 0001:0001A99A
   925 0001:0001A9A2   926 0001:0001A9AD   928 0001:0001A9B5   929 0001:0001A9CC
   936 0001:0001A9D0   937 0001:0001A9D4   938 0001:0001A9E7   939 0001:0001A9F4
   940 0001:0001A9FF   941 0001:0001AA05   945 0001:0001AA08   946 0001:0001AA0B
   948 0001:0001AA16   950 0001:0001AA1D   954 0001:0001AA20   955 0001:0001AA23
   956 0001:0001AA2E   959 0001:0001AA30   960 0001:0001AA39   961 0001:0001AA48
   964 0001:0001AA4C   965 0001:0001AA78   966 0001:0001AAA5   971 0001:0001AAAC
   972 0001:0001AAAF   973 0001:0001AAB6   974 0001:0001AAC6   977 0001:0001AAC8
   978 0001:0001AACE   979 0001:0001AADE   980 0001:0001AAE7   986 0001:0001AAEC
   987 0001:0001AAF5   988 0001:0001AB00   990 0001:0001AB14   991 0001:0001AB27
   992 0001:0001AB34   993 0001:0001AB45   994 0001:0001AB4B   997 0001:0001AB50
   998 0001:0001AB6C   999 0001:0001AB7B  1000 0001:0001AB89  1001 0001:0001ABA1
  1003 0001:0001ABAF  1004 0001:0001ABC7  1008 0001:0001ABD8  1010 0001:0001ABF6
  1012 0001:0001AC23  1015 0001:0001AC28  1016 0001:0001AC46  1017 0001:0001AC55
  1018 0001:0001AC63  1019 0001:0001AC7B  1020 0001:0001AC89  1021 0001:0001AC97
  1024 0001:0001ACB7  1026 0001:0001ACC9  1028 0001:0001ACF6  1031 0001:0001AD00
  1032 0001:0001AD03  1033 0001:0001AD0A  1035 0001:0001AD11  1037 0001:0001AD1C
  1040 0001:0001AD20  1041 0001:0001AD23  1042 0001:0001AD2A  1043 0001:0001AD2E
  1045 0001:0001AD35  1047 0001:0001AD40  1052 0001:0001AD44  1053 0001:0001AD4F
  1054 0001:0001AD57  1055 0001:0001AD5F  1056 0001:0001AD68  1057 0001:0001AD7F
  1061 0001:0001AD84  1062 0001:0001AD93  1063 0001:0001AD95  1066 0001:0001AD98
  1067 0001:0001AD9F  1068 0001:0001ADB4  1069 0001:0001ADBB  1070 0001:0001ADCC
  1073 0001:0001ADDC  1074 0001:0001ADE2  1075 0001:0001ADE9  1076 0001:0001ADF4
  1078 0001:0001AE01  1081 0001:0001AE04  1082 0001:0001AE05  1083 0001:0001AE16
  1086 0001:0001AE18  1087 0001:0001AE19  1088 0001:0001AE2A  1095 0001:0001AE2C
  1096 0001:0001AE57  1097 0001:0001AE60  1098 0001:0001AEA7  1101 0001:0001AEB0
  1102 0001:0001AEB7  1103 0001:0001AECC  1104 0001:0001AEDA  1106 0001:0001AEE3
  1107 0001:0001AEEE  1108 0001:0001AEF8  1110 0001:0001AF03  1113 0001:0001AF08
  1114 0001:0001AF0E  1115 0001:0001AF14  1117 0001:0001AF20  1118 0001:0001AF2A
  1121 0001:0001AF30  1122 0001:0001AF49  1124 0001:0001AF7B  1125 0001:0001AF9C
  1126 0001:0001AFA6  1127 0001:0001AFCC  1130 0001:0001AFD4  1131 0001:0001AFD8
  1132 0001:0001AFEC  1134 0001:0001AFF1  1135 0001:0001AFF3  1138 0001:0001AFF8
  1139 0001:0001B012  1140 0001:0001B042  1143 0001:0001B048  1144 0001:0001B04B
  1145 0001:0001B055  1151 0001:0001B058  1152 0001:0001B075  1153 0001:0001B080
  1154 0001:0001B087  1155 0001:0001B092  1156 0001:0001B09D  1157 0001:0001B0A3
  1158 0001:0001B0BC  1159 0001:0001B0FE  1165 0001:0001B104  1166 0001:0001B122
  1167 0001:0001B12D  1168 0001:0001B133  1169 0001:0001B14C  1170 0001:0001B165
  1171 0001:0001B16B  1172 0001:0001B184  1173 0001:0001B18F  1174 0001:0001B196
  1175 0001:0001B1A1  1176 0001:0001B1E3  1182 0001:0001B1E8  1183 0001:0001B1FA
  1184 0001:0001B220  1193 0001:0001B224  1194 0001:0001B22C  1195 0001:0001B23D
  1196 0001:0001B258  1197 0001:0001B25D  1200 0001:0001B264  1201 0001:0001B26A
  1202 0001:0001B273  1206 0001:0001B278  1207 0001:0001B27D  1212 0001:0001B280
  1213 0001:0001B284  1214 0001:0001B28B  1215 0001:0001B299  1216 0001:0001B2A3
  1221 0001:0001B2A8  1222 0001:0001B2D4  1223 0001:0001B2DF  1224 0001:0001B2E3
  1225 0001:0001B2EC  1226 0001:0001B2F5  1228 0001:0001B302  1229 0001:0001B32A
  1234 0001:0001B334  1235 0001:0001B337  1236 0001:0001B33E  1237 0001:0001B342
  1239 0001:0001B346  1240 0001:0001B34F  1245 0001:0001B354  1246 0001:0001B35B
  1247 0001:0001B364  1248 0001:0001B368  1249 0001:0001B378  1254 0001:0001B37C
  1255 0001:0001B381  1256 0001:0001B392  1257 0001:0001B3A4  1262 0001:0001B3A8
  1263 0001:0001B3AD  1264 0001:0001B3BE  1265 0001:0001B3D0  1269 0001:0001B404

Line numbers for mxAppUtils(mxAppUtils.pas) segment .text

   116 0001:0001B40C   117 0001:0001B438   118 0001:0001B440   120 0001:0001B470
   121 0001:0001B47A   122 0001:0001B48B   123 0001:0001B494   125 0001:0001B4CA
   126 0001:0001B4D5   130 0001:0001B4E3   131 0001:0001B4E6   132 0001:0001B4F7
   136 0001:0001B551   137 0001:0001B57D   140 0001:0001B594   141 0001:0001B5AC
   142 0001:0001B5B5   144 0001:0001B5BF   145 0001:0001B60A   149 0001:0001B620
   150 0001:0001B63A   151 0001:0001B658   152 0001:0001B668   153 0001:0001B68E
   154 0001:0001B697   155 0001:0001B6B0   156 0001:0001B6E0   163 0001:0001B708
   164 0001:0001B730   166 0001:0001B740   167 0001:0001B754   168 0001:0001B765
   169 0001:0001B77E   170 0001:0001B79B   171 0001:0001B79D   172 0001:0001B7A1
   173 0001:0001B7B6   175 0001:0001B7CA   178 0001:0001B7E5   179 0001:0001B81A
   184 0001:0001B824   185 0001:0001B82A   186 0001:0001B82C   187 0001:0001B842
   188 0001:0001B85B   189 0001:0001B86B   191 0001:0001B86D   192 0001:0001B873
   198 0001:0001B878   199 0001:0001B89C   200 0001:0001B8A1   201 0001:0001B8B7
   202 0001:0001B8D1   203 0001:0001B8F7   204 0001:0001B908   206 0001:0001B90A
   207 0001:0001B90E   208 0001:0001B914   209 0001:0001B926   212 0001:0001B934
   213 0001:0001B950   215 0001:0001B978   219 0001:0001B980   220 0001:0001B987
   225 0001:0001B988   226 0001:0001B98E   227 0001:0001B99F   228 0001:0001B9AD
   230 0001:0001B9D8   232 0001:0001B9EB   235 0001:0001B9F0   236 0001:0001B9F3
   237 0001:0001B9F8   238 0001:0001BA08   239 0001:0001BA0A   249 0001:0001BA0C
   250 0001:0001BA3B   251 0001:0001BA49   253 0001:0001BA81   257 0001:0001BA88
   258 0001:0001BA96   260 0001:0001BAA1   263 0001:0001BAAD   264 0001:0001BABB
   265 0001:0001BAC7   266 0001:0001BACD   267 0001:0001BAD0   268 0001:0001BAD6
   269 0001:0001BAD9   272 0001:0001BADC   273 0001:0001BAE1   274 0001:0001BAE4
   280 0001:0001BAF8   281 0001:0001BB00   282 0001:0001BB06   283 0001:0001BB39
   293 0001:0001BB40   294 0001:0001BB6F   295 0001:0001BB7D   297 0001:0001BBB5
   301 0001:0001BBBC   302 0001:0001BBCA   304 0001:0001BBD5   306 0001:0001BBE2
   307 0001:0001BBE8   308 0001:0001BBEB   309 0001:0001BBF1   310 0001:0001BBF4
   311 0001:0001BBF5   315 0001:0001BBF8   316 0001:0001BBFD   317 0001:0001BC00
   323 0001:0001BC13   324 0001:0001BC1B   325 0001:0001BC21   326 0001:0001BC54
   341 0001:0001BC5C   343 0001:0001BC6F   344 0001:0001BC80   347 0001:0001BC94
   348 0001:0001BCA5   349 0001:0001BCB8   350 0001:0001BCC2   356 0001:0001BCCC
   358 0001:0001BCF2   359 0001:0001BD03   362 0001:0001BD12   363 0001:0001BD1C
   364 0001:0001BD22   366 0001:0001BD56   368 0001:0001BD70   369 0001:0001BD81
   373 0001:0001BDAE   377 0001:0001BDC4   379 0001:0001BDD5   380 0001:0001BDE6
   383 0001:0001BDF5   384 0001:0001BE06   385 0001:0001BE15   386 0001:0001BE17
   390 0001:0001BE20   392 0001:0001BE2C   393 0001:0001BE3D   396 0001:0001BE4E
   397 0001:0001BE5F   398 0001:0001BE6E   402 0001:0001BE78   404 0001:0001BE89
   405 0001:0001BE9A   408 0001:0001BEA9   409 0001:0001BEBA   410 0001:0001BEC9
   411 0001:0001BECB   415 0001:0001BED4   417 0001:0001BEE0   418 0001:0001BEF1
   421 0001:0001BF02   422 0001:0001BF13   423 0001:0001BF22   426 0001:0001BF2C
   428 0001:0001BF32   429 0001:0001BF43   432 0001:0001BF4F   433 0001:0001BF60
   434 0001:0001BF69   443 0001:0001BF6C   445 0001:0001BF75   446 0001:0001BF86
   447 0001:0001BF93   448 0001:0001BFA4   456 0001:0001BFAF   490 0001:0001BFB4
   492 0001:0001BFBA   493 0001:0001BFCB   494 0001:0001BFD7   495 0001:0001BFE8
   500 0001:0001BFF1   505 0001:0001BFF4   506 0001:0001C024   507 0001:0001C031
   508 0001:0001C05D   509 0001:0001C06A   510 0001:0001C079   512 0001:0001C093
   513 0001:0001C0A4   514 0001:0001C105   516 0001:0001C136   523 0001:0001C178
   524 0001:0001C19F   525 0001:0001C1AC   526 0001:0001C1D8   527 0001:0001C1DD
   528 0001:0001C1EB   529 0001:0001C201   530 0001:0001C205   531 0001:0001C214
   533 0001:0001C252   534 0001:0001C256   535 0001:0001C25F   538 0001:0001C272
   540 0001:0001C2A1   545 0001:0001C2E0   546 0001:0001C2E5   550 0001:0001C2E8
   551 0001:0001C2ED   556 0001:0001C2F0   557 0001:0001C2F5   561 0001:0001C2F8
   562 0001:0001C2FD   568 0001:0001C300   569 0001:0001C324   570 0001:0001C332
   571 0001:0001C364   572 0001:0001C385   578 0001:0001C39C   579 0001:0001C3C0
   580 0001:0001C3CE   581 0001:0001C40B   582 0001:0001C42C   586 0001:0001C444
   587 0001:0001C45D   588 0001:0001C490   591 0001:0001C498   592 0001:0001C4B1
   593 0001:0001C4E4   597 0001:0001C4EC   598 0001:0001C505   599 0001:0001C538
   602 0001:0001C540   603 0001:0001C559   604 0001:0001C58C   607 0001:0001C594
   608 0001:0001C59A   610 0001:0001C5CE   613 0001:0001C5E4   614 0001:0001C608
   615 0001:0001C62D   616 0001:0001C663   619 0001:0001C66C   620 0001:0001C68A
   621 0001:0001C6AF   622 0001:0001C6E0   628 0001:0001C6EC   629 0001:0001C711
   630 0001:0001C718   632 0001:0001C729   633 0001:0001C749   634 0001:0001C750
   635 0001:0001C764   636 0001:0001C768   637 0001:0001C77A   638 0001:0001C78C
   639 0001:0001C7A5   641 0001:0001C7F5   645 0001:0001C86A   651 0001:0001C8E4
   652 0001:0001C8E9   658 0001:0001C8EC   659 0001:0001C8F1   669 0001:0001C8F4
   671 0001:0001C913   672 0001:0001C92A   676 0001:0001C93B   677 0001:0001C949
   679 0001:0001C97E   681 0001:0001C9AB   727 0001:0001CBB8   728 0001:0001CBF8
   729 0001:0001CC03   730 0001:0001CC0A   732 0001:0001CC1C   733 0001:0001CC2E
   734 0001:0001CC33   735 0001:0001CC3B   736 0001:0001CC3D   737 0001:0001CC54
   738 0001:0001CC68   739 0001:0001CC72   740 0001:0001CC74   741 0001:0001CC97
   742 0001:0001CCBA   743 0001:0001CCDD   745 0001:0001CD00   746 0001:0001CD14
   747 0001:0001CD1E   748 0001:0001CD20   749 0001:0001CD47   750 0001:0001CD6B
   751 0001:0001CD92   753 0001:0001CDB9   754 0001:0001CDDE   755 0001:0001CDE0
   756 0001:0001CDE8   757 0001:0001CDF9   759 0001:0001CE21   760 0001:0001CE29
   763 0001:0001CE3E   764 0001:0001CE49   765 0001:0001CE57   767 0001:0001CE6D
   770 0001:0001CE81   774 0001:0001CE93   775 0001:0001CE9D   777 0001:0001CE9F
   780 0001:0001CED9   781 0001:0001CEDB   782 0001:0001CEF2   784 0001:0001CF1F
   786 0001:0001CF23   787 0001:0001CF27   790 0001:0001CF29   793 0001:0001CF47
   794 0001:0001CF51   795 0001:0001CF6D   798 0001:0001CF6F   799 0001:0001CF7E
   800 0001:0001CF86   802 0001:0001CF8D   804 0001:0001CFC2   809 0001:0001D048
   810 0001:0001D04C   811 0001:0001D059   816 0001:0001D060   817 0001:0001D064
   818 0001:0001D071   828 0001:0001D078   830 0001:0001D097   831 0001:0001D09B
   833 0001:0001D0AC   837 0001:0001D0B8   841 0001:0001D0C9   842 0001:0001D0D7
   844 0001:0001D110   846 0001:0001D13D   852 0001:0001D144   853 0001:0001D16A
   854 0001:0001D172   855 0001:0001D174   856 0001:0001D18B   857 0001:0001D1AC
   858 0001:0001D1B7   860 0001:0001D1B9   861 0001:0001D1E7   870 0001:0001D1F0
   871 0001:0001D1FC   872 0001:0001D212   873 0001:0001D235   878 0001:0001D23C
   879 0001:0001D23F   880 0001:0001D251   881 0001:0001D25C   882 0001:0001D261
   883 0001:0001D274   884 0001:0001D289   886 0001:0001D2C8

Line numbers for mxMaxMin(mxMaxMin.pas) segment .text

    56 0001:0001D2D0    57 0001:0001D2D1    58 0001:0001D2D9    64 0001:0001D2DC
    65 0001:0001D2DF    66 0001:0001D301    72 0001:0001D304    73 0001:0001D305
    74 0001:0001D30D    78 0001:0001D310    79 0001:0001D314    80 0001:0001D316
    84 0001:0001D318    85 0001:0001D31C    86 0001:0001D31E    91 0001:0001D320
    92 0001:0001D321    93 0001:0001D323    94 0001:0001D328    95 0001:0001D338
   100 0001:0001D33C   101 0001:0001D33D   102 0001:0001D33F   103 0001:0001D344
   104 0001:0001D354   111 0001:0001D358   112 0001:0001D35C   113 0001:0001D368
   114 0001:0001D371   115 0001:0001D39E   120 0001:0001D3A4   121 0001:0001D3A8
   122 0001:0001D3B4   123 0001:0001D3BD   124 0001:0001D3EA   131 0001:0001D3F0
   132 0001:0001D3F3   133 0001:0001D408   134 0001:0001D411   135 0001:0001D43B
   140 0001:0001D440   141 0001:0001D443   142 0001:0001D458   143 0001:0001D461
   144 0001:0001D48B   149 0001:0001D490   150 0001:0001D493   151 0001:0001D49F
   152 0001:0001D4A8   153 0001:0001D4C7   158 0001:0001D4CC   159 0001:0001D4CF
   160 0001:0001D4DB   161 0001:0001D4E4   162 0001:0001D503   168 0001:0001D508
   169 0001:0001D511   170 0001:0001D51A   171 0001:0001D51F   172 0001:0001D539
   177 0001:0001D540   178 0001:0001D549   179 0001:0001D552   180 0001:0001D557
   181 0001:0001D571   184 0001:0001D5A8

Line numbers for mxVclUtils(mxVclUtils.pas) segment .text

   359 0001:0001D708   360 0001:0001D72A   361 0001:0001D73F   362 0001:0001D74A
   363 0001:0001D7B0   372 0001:0001D7B4   373 0001:0001D7D5   374 0001:0001D7E4
   376 0001:0001D7F2   377 0001:0001D7F6   378 0001:0001D7FD   380 0001:0001D80D
   383 0001:0001D827   384 0001:0001D83B   391 0001:0001D85E   392 0001:0001D866
   394 0001:0001D890   398 0001:0001D898   399 0001:0001D8A4   403 0001:0001D8A8
   404 0001:0001D8B5   410 0001:0001D8B8   411 0001:0001D8C7   412 0001:0001D8D7
   413 0001:0001D8E0   414 0001:0001D8ED   415 0001:0001D8F8   416 0001:0001D905
   418 0001:0001D913   420 0001:0001D927   421 0001:0001D938   425 0001:0001D990
   429 0001:0001D9A2   430 0001:0001D9B6   431 0001:0001D9DB   435 0001:0001DA04
   438 0001:0001DA14   448 0001:0001DB6C   449 0001:0001DB78   450 0001:0001DB8F
   451 0001:0001DB9D   453 0001:0001DBA7   454 0001:0001DBBC   457 0001:0001DBCA
   458 0001:0001DBEC   461 0001:0001DC02   462 0001:0001DC0E   463 0001:0001DC1C
   464 0001:0001DC2F   466 0001:0001DC54   467 0001:0001DC5A   468 0001:0001DC6B
   471 0001:0001DC85   474 0001:0001DC9A   475 0001:0001DCB1   476 0001:0001DCC8
   479 0001:0001DCFF   480 0001:0001DD10   481 0001:0001DD32   483 0001:0001DD58
   485 0001:0001DD6D   486 0001:0001DD79   487 0001:0001DD87   488 0001:0001DD93
   489 0001:0001DDB2   490 0001:0001DDCD   492 0001:0001DDEC   494 0001:0001DDF9
   500 0001:0001DE18   503 0001:0001DE31   506 0001:0001DE4F   519 0001:0001DE58
   521 0001:0001DE69   522 0001:0001DE72   523 0001:0001DE7B   524 0001:0001DE83
   526 0001:0001DE8B   527 0001:0001DEA1   528 0001:0001DEB7   529 0001:0001DEC8
   531 0001:0001DED9   532 0001:0001DEE9   533 0001:0001DEF9   534 0001:0001DF06
   536 0001:0001DF13   537 0001:0001DF27   538 0001:0001DF2D   539 0001:0001DF3C
   540 0001:0001DF42   541 0001:0001DF51   542 0001:0001DF57   543 0001:0001DF69
   544 0001:0001DF72   545 0001:0001DF81   548 0001:0001DF87   549 0001:0001DF97
   551 0001:0001DFA4   554 0001:0001DFC7   557 0001:0001DFD9   559 0001:0001DFF8
   561 0001:0001E002   563 0001:0001E024   565 0001:0001E044   567 0001:0001E06B
   569 0001:0001E08A   571 0001:0001E0AE   574 0001:0001E0CE   575 0001:0001E0D4
   576 0001:0001E0E0   577 0001:0001E0EF   578 0001:0001E0FB   581 0001:0001E107
   582 0001:0001E11A   583 0001:0001E12D   584 0001:0001E13D   586 0001:0001E14D
   587 0001:0001E153   588 0001:0001E15C   589 0001:0001E165   590 0001:0001E16B
   596 0001:0001E174   597 0001:0001E18D   598 0001:0001E196   599 0001:0001E1A4
   600 0001:0001E1AE   604 0001:0001E1ED   606 0001:0001E1FE   612 0001:0001E208
   613 0001:0001E219   614 0001:0001E225   616 0001:0001E256   623 0001:0001E260
   624 0001:0001E277   625 0001:0001E285   626 0001:0001E293   627 0001:0001E29F
   628 0001:0001E2A9   629 0001:0001E2B4   631 0001:0001E2BF   632 0001:0001E2CB
   633 0001:0001E2DB   635 0001:0001E2EF   637 0001:0001E2FC   638 0001:0001E30A
   639 0001:0001E31A   640 0001:0001E322   645 0001:0001E361   646 0001:0001E369
   648 0001:0001E385   649 0001:0001E398   650 0001:0001E3A1   655 0001:0001E3EB
   657 0001:0001E3FF   660 0001:0001E414   665 0001:0001E420   666 0001:0001E432
   669 0001:0001E45B   673 0001:0001E464   674 0001:0001E476   678 0001:0001E4A5
   682 0001:0001E4B0   683 0001:0001E4C1   685 0001:0001E4F6   693 0001:0001E500
   694 0001:0001E50F   695 0001:0001E51E   697 0001:0001E52C   698 0001:0001E53D
   699 0001:0001E54E   700 0001:0001E56E   701 0001:0001E580   702 0001:0001E590
   705 0001:0001E5B6   706 0001:0001E5BE   708 0001:0001E5CB   721 0001:0001E5D4
   722 0001:0001E5E3   723 0001:0001E601   724 0001:0001E610   725 0001:0001E61E
   726 0001:0001E62F   727 0001:0001E640   728 0001:0001E64F   730 0001:0001E65D
   731 0001:0001E66E   732 0001:0001E67F   734 0001:0001E69C   736 0001:0001E6A6
   737 0001:0001E6B8   738 0001:0001E6C4   739 0001:0001E6D9   740 0001:0001E6E3
   742 0001:0001E6F8   744 0001:0001E702   745 0001:0001E70C   746 0001:0001E716
   747 0001:0001E720   748 0001:0001E726   749 0001:0001E731   750 0001:0001E740
   751 0001:0001E752   754 0001:0001E78C   755 0001:0001E797   756 0001:0001E7A6
   757 0001:0001E7B8   761 0001:0001E7FF   764 0001:0001E81E   765 0001:0001E826
   767 0001:0001E833   771 0001:0001E83C   773 0001:0001E852   781 0001:0001E854
   782 0001:0001E864   783 0001:0001E872   784 0001:0001E881   785 0001:0001E88F
   786 0001:0001E89A   787 0001:0001E8A5   788 0001:0001E8AF   789 0001:0001E8BC
   790 0001:0001E8DA   792 0001:0001E8F9   793 0001:0001E903   794 0001:0001E909
   795 0001:0001E917   796 0001:0001E92A   797 0001:0001E93A   800 0001:0001E970
   801 0001:0001E97E   802 0001:0001E991   803 0001:0001E9A1   806 0001:0001E9E0
   807 0001:0001E9E8   809 0001:0001E9FE   817 0001:0001EA08   818 0001:0001EA13
   819 0001:0001EA22   820 0001:0001EA2F   821 0001:0001EA3C   823 0001:0001EA46
   824 0001:0001EA50   825 0001:0001EA5A   826 0001:0001EA87   827 0001:0001EA89
   828 0001:0001EA8B   829 0001:0001EAAC   831 0001:0001EAC7   837 0001:0001EAD0
   838 0001:0001EADC   842 0001:0001EAE0   843 0001:0001EAED   846 0001:0001EAF0
   847 0001:0001EAF7   848 0001:0001EB05   849 0001:0001EB15   850 0001:0001EB20
   851 0001:0001EB27   853 0001:0001EB2B   860 0001:0001EB30   861 0001:0001EB3E
   862 0001:0001EB47   863 0001:0001EB51   864 0001:0001EB60   865 0001:0001EB6E
   866 0001:0001EB78   867 0001:0001EB83   868 0001:0001EB8D   869 0001:0001EB98
   870 0001:0001EBB5   873 0001:0001EBC1   874 0001:0001EBCC   877 0001:0001EBE5
   878 0001:0001EBED   880 0001:0001EBFA   884 0001:0001EC04   885 0001:0001EC11
   886 0001:0001EC31   888 0001:0001EC3F   889 0001:0001EC47   891 0001:0001EC50
   892 0001:0001EC5A   893 0001:0001EC66   894 0001:0001EC75   895 0001:0001EC83
   897 0001:0001EC9F   898 0001:0001ECA7   901 0001:0001ECBE   903 0001:0001ECD1
   909 0001:0001ECD8   910 0001:0001ECDB   911 0001:0001ECEB   914 0001:0001ECF0
   915 0001:0001ECF3   916 0001:0001ED08   919 0001:0001ED0C   920 0001:0001ED0F
   921 0001:0001ED25   924 0001:0001ED28   925 0001:0001ED2B   926 0001:0001ED46
   939 0001:0001EE88   940 0001:0001EE8C   942 0001:0001EE98   946 0001:0001EEA7
   947 0001:0001EEAD   949 0001:0001EEB2   953 0001:0001EEBB   962 0001:0001EEC0
   963 0001:0001EEC7   964 0001:0001EECB   965 0001:0001EED3   966 0001:0001EEE1
   967 0001:0001EEEF   968 0001:0001EEF3   969 0001:0001EEF7   972 0001:0001EF08
   974 0001:0001EF1C   978 0001:0001EF38   979 0001:0001EF3F   984 0001:0001EF40
   986 0001:0001EF50   989 0001:0001EF60   990 0001:0001EF73   991 0001:0001EF81
   992 0001:0001EFA1   993 0001:0001EFC3  1016 0001:0001EFCC  1017 0001:0001EFD8
  1018 0001:0001EFE2  1019 0001:0001EFF0  1020 0001:0001F004  1022 0001:0001F01E
  1024 0001:0001F031  1030 0001:0001F038  1031 0001:0001F04C  1032 0001:0001F056
  1033 0001:0001F064  1034 0001:0001F068  1035 0001:0001F075  1038 0001:0001F092
  1040 0001:0001F0A5  1043 0001:0001F0AC  1044 0001:0001F0BA  1045 0001:0001F0C1
  1048 0001:0001F0C8  1049 0001:0001F0D6  1050 0001:0001F0DE  1053 0001:0001F0E4
  1054 0001:0001F0E5  1057 0001:0001F106  1065 0001:0001F108  1066 0001:0001F111
  1067 0001:0001F11E  1068 0001:0001F12C  1070 0001:0001F152  1072 0001:0001F166
  1075 0001:0001F16C  1076 0001:0001F16F  1077 0001:0001F17B  1085 0001:0001F180
  1086 0001:0001F189  1087 0001:0001F18F  1088 0001:0001F1A9  1089 0001:0001F1B3
  1094 0001:0001F1BC  1095 0001:0001F1E5  1097 0001:0001F1F3  1098 0001:0001F1FC
  1099 0001:0001F201  1100 0001:0001F20B  1101 0001:0001F210  1102 0001:0001F224
  1103 0001:0001F22B  1104 0001:0001F23A  1105 0001:0001F249  1107 0001:0001F258
  1108 0001:0001F262  1109 0001:0001F27D  1111 0001:0001F29B  1120 0001:0001F2B0
  1121 0001:0001F2B4  1122 0001:0001F2B8  1123 0001:0001F2BC  1124 0001:0001F2CD
  1125 0001:0001F2D3  1126 0001:0001F2D9  1129 0001:0001F2DD  1130 0001:0001F314
  1135 0001:0001F32C  1136 0001:0001F330  1138 0001:0001F337  1140 0001:0001F343
  1141 0001:0001F348  1142 0001:0001F354  1145 0001:0001F358  1146 0001:0001F359
  1147 0001:0001F365  1152 0001:0001F368  1153 0001:0001F36D  1154 0001:0001F370
  1155 0001:0001F373  1157 0001:0001F388  1160 0001:0001F39E  1161 0001:0001F3B9
  1164 0001:0001F3D6  1165 0001:0001F3EE  1169 0001:0001F408  1171 0001:0001F40F
  1172 0001:0001F414  1173 0001:0001F428  1176 0001:0001F43C  1177 0001:0001F442
  1178 0001:0001F448  1179 0001:0001F45E  1184 0001:0001F464  1185 0001:0001F468
  1186 0001:0001F471  1188 0001:0001F47A  1189 0001:0001F481  1190 0001:0001F483
  1191 0001:0001F488  1193 0001:0001F48C  1194 0001:0001F492  1195 0001:0001F499
  1196 0001:0001F49D  1198 0001:0001F4A2  1199 0001:0001F4A9  1200 0001:0001F4AC
  1201 0001:0001F4B1  1203 0001:0001F4B6  1204 0001:0001F4BD  1205 0001:0001F4C4
  1206 0001:0001F4C9  1209 0001:0001F4CE  1214 0001:0001F4D4  1215 0001:0001F4DF
  1216 0001:0001F4E6  1219 0001:0001F533  1220 0001:0001F53A  1222 0001:0001F550
  1229 0001:0001F558  1230 0001:0001F569  1231 0001:0001F56F  1232 0001:0001F576
  1234 0001:0001F57D  1235 0001:0001F586  1236 0001:0001F593  1238 0001:0001F59D
  1239 0001:0001F5A5  1240 0001:0001F5B3  1242 0001:0001F5C5  1243 0001:0001F5D0
  1246 0001:0001F5EE  1247 0001:0001F5F7  1249 0001:0001F60E  1251 0001:0001F61E
  1260 0001:0001F62C  1261 0001:0001F632  1263 0001:0001F636  1264 0001:0001F63E
  1265 0001:0001F642  1266 0001:0001F647  1268 0001:0001F64C  1269 0001:0001F64E
  1270 0001:0001F653  1273 0001:0001F658  1274 0001:0001F661  1277 0001:0001F673
  1280 0001:0001F678  1281 0001:0001F681  1282 0001:0001F68B  1283 0001:0001F698
  1284 0001:0001F69B  1285 0001:0001F6A6  1286 0001:0001F6AD  1299 0001:0001F6B4
  1300 0001:0001F6C2  1301 0001:0001F6D7  1302 0001:0001F6ED  1303 0001:0001F6FB
  1304 0001:0001F70B  1305 0001:0001F718  1306 0001:0001F73A  1307 0001:0001F744
  1309 0001:0001F75B  1310 0001:0001F76E  1312 0001:0001F77F  1319 0001:0001F788
  1320 0001:0001F78B  1321 0001:0001F79B  1322 0001:0001F7C0  1327 0001:0001F7C4
  1328 0001:0001F7D0  1329 0001:0001F7EB  1336 0001:0001F7F4  1337 0001:0001F7F7
  1338 0001:0001F7FE  1340 0001:0001F812  1344 0001:0001F81D  1345 0001:0001F81F
  1350 0001:0001F824  1351 0001:0001F827  1352 0001:0001F82E  1353 0001:0001F837
  1354 0001:0001F847  1359 0001:0001F84C  1360 0001:0001F853  1361 0001:0001F85A
  1362 0001:0001F865  1363 0001:0001F86C  1364 0001:0001F877  1379 0001:0001F87C
  1380 0001:0001F882  1382 0001:0001F88C  1383 0001:0001F892  1384 0001:0001F8A0
  1385 0001:0001F8AA  1386 0001:0001F8BC  1392 0001:0001F8C2  1397 0001:0001F8C8
  1401 0001:0001F8D0  1404 0001:0001F8D4  1405 0001:0001F8D7  1406 0001:0001F8DB
  1408 0001:0001F8E7  1413 0001:0001F8ED  1423 0001:0001F8F0  1424 0001:0001F90F
  1425 0001:0001F914  1426 0001:0001F91D  1427 0001:0001F927  1428 0001:0001F941
  1429 0001:0001F94F  1430 0001:0001F95D  1432 0001:0001F97A  1433 0001:0001F982
  1435 0001:0001F9B2  1439 0001:0001F9B8  1440 0001:0001F9CC  1441 0001:0001F9E6
  1442 0001:0001F9E8  1444 0001:0001F9F3  1445 0001:0001FA15  1461 0001:0001FA30
  1462 0001:0001FA4C  1463 0001:0001FA4E  1464 0001:0001FA55  1465 0001:0001FA5D
  1467 0001:0001FA68  1468 0001:0001FA6A  1470 0001:0001FA80  1472 0001:0001FA99
  1473 0001:0001FA9E  1475 0001:0001FAB4  1480 0001:0001FABB  1481 0001:0001FAC5
  1482 0001:0001FAD7  1483 0001:0001FAD9  1485 0001:0001FADB  1487 0001:0001FAE9
  1488 0001:0001FAF0  1489 0001:0001FAF8  1493 0001:0001FB10  1498 0001:0001FB18
  1499 0001:0001FB1F  1501 0001:0001FB40  1507 0001:0001FB60  1508 0001:0001FB6D
  1509 0001:0001FB74  1510 0001:0001FB82  1512 0001:0001FBB1  1514 0001:0001FBC3
  1535 0001:0001FBCC  1536 0001:0001FBDA  1537 0001:0001FBEB  1571 0001:0001FBF4
  1572 0001:0001FC0F  1573 0001:0001FC20  1574 0001:0001FC25  1575 0001:0001FC35
  1576 0001:0001FC48  1577 0001:0001FC4E  1579 0001:0001FC53  1580 0001:0001FC5E
  1581 0001:0001FC69  1584 0001:0001FC7F  1585 0001:0001FC8A  1586 0001:0001FC95
  1588 0001:0001FCA0  1589 0001:0001FCB7  1590 0001:0001FCCE  1595 0001:0001FCE7
  1596 0001:0001FCF2  1597 0001:0001FCFD  1600 0001:0001FD08  1601 0001:0001FD1F
  1602 0001:0001FD36  1606 0001:0001FD4D  1607 0001:0001FD57  1608 0001:0001FD5E
  1609 0001:0001FD7F  1612 0001:0001FD95  1613 0001:0001FDB6  1615 0001:0001FDCA
  1616 0001:0001FDD0  1617 0001:0001FDD9  1620 0001:0001FDE2  1621 0001:0001FDEC
  1622 0001:0001FDFE  1625 0001:0001FE0B  1626 0001:0001FE16  1630 0001:0001FE1E
  1631 0001:0001FE29  1635 0001:0001FE2F  1639 0001:0001FE73  1640 0001:0001FE86
  1641 0001:0001FE8C  1643 0001:0001FE96  1644 0001:0001FE9D  1645 0001:0001FEB3
  1646 0001:0001FEC7  1647 0001:0001FECD  1650 0001:0001FEDA  1651 0001:0001FEE3
  1655 0001:0001FEEB  1656 0001:0001FEF4  1659 0001:0001FEFA  1661 0001:0001FF05
  1663 0001:0001FF12  1665 0001:0001FF1D  1666 0001:0001FF30  1668 0001:0001FF36
  1674 0001:0001FF40  1675 0001:0001FF67  1676 0001:0001FF70  1678 0001:0001FF77
  1679 0001:0001FF78  1681 0001:0001FFE2  1687 0001:0001FFF8  1688 0001:00020001
  1689 0001:00020011  1690 0001:00020023  1691 0001:00020038  1692 0001:00020044
  1698 0001:0002004C  1699 0001:00020050  1700 0001:00020067  1701 0001:00020069
  1705 0001:0002006C  1707 0001:00020081  1710 0001:00020084  1711 0001:00020087
  1712 0001:0002008C  1713 0001:00020093  1715 0001:00020097  1720 0001:0002009C
  1721 0001:0002009D  1722 0001:0002009F  1724 0001:000200A3  1728 0001:000200A9
  1730 0001:000200B7  1735 0001:000200BC  1736 0001:000200BD  1737 0001:000200BE
  1738 0001:000200C0  1739 0001:000200C2  1740 0001:000200C4  1741 0001:000200C6
  1742 0001:000200C8  1743 0001:000200CB  1744 0001:000200CE  1745 0001:000200D0
  1746 0001:000200D2  1747 0001:000200D4  1748 0001:000200D6  1749 0001:000200D8
  1750 0001:000200D9  1751 0001:000200DA  1764 0001:000200DB  1783 0001:000200DC
  1784 0001:000200E0  1788 0001:000200E4  1789 0001:000200EA  1793 0001:000200EC
  1794 0001:000200F0  1798 0001:000200F4  1799 0001:000200FA  1804 0001:000200FC
  1805 0001:00020100  1806 0001:00020107  1807 0001:0002010E  1808 0001:0002011D
  1988 0001:00020124  1990 0001:00020133  1991 0001:00020150  1992 0001:0002015F
  2008 0001:00020166  2016 0001:0002016C  2019 0001:00020178  2020 0001:00020183
  2022 0001:00020193  2024 0001:00020197  2026 0001:0002019B  2029 0001:0002019E
  2030 0001:000201A1  2031 0001:000201A2  2033 0001:000201AD  2036 0001:000201B5
  2037 0001:000201B8  2038 0001:000201B9  2040 0001:000201C0  2041 0001:000201CB
  2042 0001:000201CD  2048 0001:000201D8  2049 0001:000201ED  2050 0001:000201EF
  2053 0001:000201F1  2054 0001:000201FD  2055 0001:00020203  2057 0001:00020225
  2062 0001:0002022C  2063 0001:00020233  2066 0001:00020235  2067 0001:00020240
  2068 0001:00020249  2070 0001:0002024C  2078 0001:00020250  2079 0001:00020275
  2080 0001:0002027C  2081 0001:00020283  2082 0001:0002028D  2083 0001:0002029B
  2084 0001:000202A6  2085 0001:000202AC  2086 0001:000202C3  2087 0001:000202D0
  2088 0001:000202DD  2089 0001:00020308  2090 0001:00020312  2091 0001:00020326
  2094 0001:00020337  2096 0001:00020369  2101 0001:00020388  2102 0001:000203B3
  2103 0001:000203BC  2104 0001:000203C0  2105 0001:000203DA  2106 0001:0002041F
  2108 0001:00020450  2111 0001:00020458  2112 0001:0002045B  2113 0001:0002046F
  2116 0001:00020474  2118 0001:00020477  2124 0001:0002047E  2127 0001:00020480
  2128 0001:00020486  2129 0001:0002049B  2130 0001:000204B0  2131 0001:000204B9
  2150 0001:000204BC  2151 0001:000204E0  2152 0001:000204E5  2153 0001:000204F0
  2154 0001:000204F8  2155 0001:00020517  2156 0001:0002053F  2157 0001:0002054D
  2158 0001:00020557  2159 0001:00020565  2160 0001:00020570  2161 0001:00020578
  2162 0001:00020586  2163 0001:000205B1  2164 0001:000205BF  2166 0001:000205DF
  2168 0001:000205EF  2170 0001:0002060B  2173 0001:00020628  2176 0001:00020646
  2179 0001:0002067D  2185 0001:00020688  2186 0001:000206A4  2188 0001:000206AD
  2189 0001:000206B1  2191 0001:000206BC  2192 0001:000206C7  2193 0001:000206CB
  2194 0001:000206F0  2195 0001:00020700  2196 0001:00020702  2197 0001:0002070A
  2198 0001:00020710  2199 0001:00020760  2207 0001:00020768  2208 0001:00020771
  2209 0001:00020782  2211 0001:00020795  2212 0001:0002079B  2216 0001:0002079C
  2217 0001:000207A5  2218 0001:000207AB  2220 0001:000207C7  2229 0001:000207C8
  2230 0001:000207E2  2234 0001:000207E4  2235 0001:000207F7  2236 0001:000207FE
  2256 0001:00020800  2257 0001:0002081A  2258 0001:0002081F  2259 0001:0002082E
  2265 0001:0002085E  2266 0001:0002086F  2268 0001:00020877  2269 0001:00020882
  2270 0001:0002088A  2272 0001:0002089F  2276 0001:000208BA  2289 0001:000208D3
  2290 0001:000208E2  2294 0001:000208F0  2295 0001:00020911  2296 0001:00020932
  2298 0001:00020950  2300 0001:0002096A  2301 0001:00020976  2302 0001:00020980
  2303 0001:0002098E  2304 0001:00020998  2305 0001:000209A2  2306 0001:000209AC
  2308 0001:000209BB  2309 0001:000209C6  2310 0001:000209CE  2322 0001:00020A14
  2325 0001:00020A3B  2329 0001:00020A52  2340 0001:00020A68  2341 0001:00020A72
  2342 0001:00020A7D  2344 0001:00020A84  2348 0001:00020AAF  2353 0001:00020AD1
  2355 0001:00020AF4  2360 0001:00020B08  2361 0001:00020B12  2363 0001:00020B31
  2374 0001:00020B38  2375 0001:00020B42  2376 0001:00020B4D  2378 0001:00020B54
  2382 0001:00020B7F  2387 0001:00020BA1  2388 0001:00020BC2  2393 0001:00020BD4
  2394 0001:00020BDE  2396 0001:00020BF9  2400 0001:00020C00  2401 0001:00020C18
  2402 0001:00020C31  2403 0001:00020C4A  2404 0001:00020C5B  2409 0001:00020C64
  2410 0001:00020C6F  2411 0001:00020C76  2412 0001:00020C8D  2415 0001:00020C90
  2416 0001:00020C93  2417 0001:00020CA3  2418 0001:00020CAD  2421 0001:00020CB0
  2422 0001:00020CB3  2423 0001:00020CB9  2424 0001:00020CC2  2425 0001:00020CCD
  2427 0001:00020CD2  2432 0001:00020CD4  2433 0001:00020CE0  2434 0001:00020CF4
  2659 0001:00020CFC  2660 0001:00020D1B  2662 0001:00020D1F  2664 0001:00020D5E
  2665 0001:00020D61  2671 0001:00020D8A  2691 0001:00020D90  2692 0001:00020D93
  2693 0001:00020DA4  2704 0001:00020DA8  2705 0001:00020DAE  2706 0001:00020DB7
  2721 0001:00020DBC  2722 0001:00020DC3  2723 0001:00020DC6  2724 0001:00020DCF
  2725 0001:00020DD1  2727 0001:00020DD7  2735 0001:00020DDC  2736 0001:00020DDF
  2737 0001:00020DE7  2739 0001:00020DEC  2748 0001:00020DFF  2749 0001:00020E03
  2758 0001:00020E08  2759 0001:00020E2C  2760 0001:00020E36  2762 0001:00020E42
  2763 0001:00020E54  2766 0001:00020E5D  2767 0001:00020E67  2768 0001:00020E82
  2769 0001:00020E8F  2771 0001:00020E9C  2773 0001:00020EA7  2776 0001:00020F4C
  2793 0001:00020F84  2797 0001:00020FB7

Line numbers for mxConst(mxConst.pas) segment .text

    89 0001:00020FF4    90 0001:00020FFD    91 0001:00021020    92 0001:00021043

Line numbers for mxStrUtils(mxStrUtils.pas) segment .text

   220 0001:0002105C   221 0001:00021062   222 0001:00021072   224 0001:0002107D
   228 0001:0002109A   231 0001:000210A0   232 0001:000210A6   233 0001:000210B6
   235 0001:000210C1   239 0001:000210DE   244 0001:000210E4   245 0001:000210EB
   246 0001:000210F4   247 0001:000210F9   248 0001:000210FD   249 0001:0002110C
   250 0001:0002110E   252 0001:00021110   254 0001:00021115   255 0001:00021117
   261 0001:0002111C   262 0001:00021140   263 0001:0002114A   265 0001:00021151
   266 0001:0002115D   267 0001:00021161   268 0001:00021189   270 0001:000211A7
   271 0001:000211B1   272 0001:000211D7   275 0001:000211E0   276 0001:000211E6
   277 0001:000211F1   282 0001:000211F4   283 0001:000211FD   284 0001:00021206
   285 0001:00021214   286 0001:0002122A   287 0001:0002122F   292 0001:00021234
   293 0001:0002123B   294 0001:00021242   295 0001:00021249   296 0001:00021255
   297 0001:00021264   302 0001:00021268   303 0001:0002126F   304 0001:0002127A
   305 0001:00021286   306 0001:00021295   309 0001:0002129C   310 0001:000212B5
   311 0001:000212E6   316 0001:000212EC   317 0001:000212F2   318 0001:000212FB
   319 0001:00021309   320 0001:0002131B   321 0001:00021329   322 0001:0002132F
   327 0001:00021334   328 0001:00021357   329 0001:0002135C   331 0001:00021368
   332 0001:00021371   333 0001:0002137F   334 0001:00021399   336 0001:000213A1
   338 0001:000213CA   341 0001:000213D4   342 0001:000213DA   347 0001:000213E9
   348 0001:000213F0   350 0001:00021407   353 0001:0002140C   354 0001:00021415
   355 0001:00021420   360 0001:00021424   361 0001:0002144B   362 0001:00021450
   363 0001:00021455   364 0001:00021461   365 0001:0002146C   366 0001:0002146F
   367 0001:00021478   368 0001:0002147E   370 0001:00021480   372 0001:00021494
   373 0001:000214B8   376 0001:000214C0   377 0001:000214E6   378 0001:000214F1
   379 0001:00021515   380 0001:0002153B   383 0001:00021544   384 0001:0002156A
   385 0001:00021575   386 0001:00021599   387 0001:000215BF   390 0001:000215C8
   391 0001:000215D1   392 0001:000215DD   395 0001:000215E4   396 0001:000215ED
   397 0001:000215F9   400 0001:00021600   402 0001:00021606   407 0001:00021639
   410 0001:0002163C   412 0001:00021642   417 0001:00021675   422 0001:00021678
   423 0001:00021694   424 0001:000216AA   425 0001:000216B8   426 0001:000216E5
   429 0001:000216EC   430 0001:0002170A   431 0001:00021715   432 0001:0002176A
   435 0001:00021774   436 0001:0002177A   437 0001:00021785   440 0001:00021788
   441 0001:0002178E   442 0001:00021799   447 0001:0002179C   448 0001:000217BD
   449 0001:000217C6   450 0001:000217CB   451 0001:000217D4   452 0001:000217DA
   453 0001:000217F2   454 0001:00021823   456 0001:00021861   461 0001:00021868
   462 0001:00021870   463 0001:00021872   464 0001:00021877   465 0001:0002187E
   466 0001:00021884   467 0001:00021898   468 0001:0002189F   470 0001:000218B9
   476 0001:000218C0   477 0001:000218CE   478 0001:000218D0   479 0001:000218D5
   482 0001:000218DF   484 0001:000218F9   486 0001:00021905   487 0001:0002190C
   488 0001:00021928   490 0001:00021940   497 0001:00021948   498 0001:00021959
   499 0001:0002195B   500 0001:0002196A   504 0001:00021970   505 0001:00021971
   506 0001:0002197B   507 0001:0002198B   509 0001:000219A8   510 0001:000219B2
   516 0001:000219BC   517 0001:000219CD   518 0001:000219CF   519 0001:000219DE
   520 0001:000219E3   524 0001:000219E9   525 0001:000219EA   526 0001:000219F4
   527 0001:00021A04   529 0001:00021A21   530 0001:00021A2B   537 0001:00021A34
   538 0001:00021A45   539 0001:00021A47   540 0001:00021A4C   541 0001:00021A51
   542 0001:00021A5C   544 0001:00021A68   546 0001:00021A7F   547 0001:00021A86
   548 0001:00021A89   549 0001:00021A94   552 0001:00021AAA   554 0001:00021AB4
   560 0001:00021AC0   561 0001:00021ACE   562 0001:00021AD5   563 0001:00021AEF
   564 0001:00021B06   565 0001:00021B20   566 0001:00021B25   571 0001:00021B30
   572 0001:00021B54   573 0001:00021B58   574 0001:00021B62   575 0001:00021B6D
   576 0001:00021B8A   577 0001:00021B8E   578 0001:00021B90   579 0001:00021BB4
   590 0001:00021BBC   591 0001:00021BC5   601 0001:00021BD0   607 0001:00021BD4
   608 0001:00021BDE   609 0001:00021BE8   610 0001:00021BFC   627 0001:00021C05
   632 0001:00021C0C   633 0001:00021C13   634 0001:00021C1C   635 0001:00021C25
   636 0001:00021C27   637 0001:00021C2B   639 0001:00021C48   640 0001:00021C56
   642 0001:00021C57   644 0001:00021C5C   647 0001:00021C6C   648 0001:00021C8A
   649 0001:00021C95   650 0001:00021CC4   652 0001:00021CE5   653 0001:00021D10
   656 0001:00021D18   657 0001:00021D21   658 0001:00021D2E   661 0001:00021D34
   662 0001:00021D3D   663 0001:00021D4A   668 0001:00021D50   669 0001:00021D66
   670 0001:00021D87   671 0001:00021D91   672 0001:00021DBC   676 0001:00021DCC
   677 0001:00021DD1   687 0001:00021DD4   688 0001:00021DFF   691 0001:00021E13
   695 0001:00021E16   696 0001:00021E1D   697 0001:00021E21   698 0001:00021E32
   699 0001:00021E3C   700 0001:00021E3F   701 0001:00021E55   704 0001:00021E6A
   705 0001:00021EAD   710 0001:00021EC4   711 0001:00021EED   712 0001:00021EF7
   713 0001:00021EF9   714 0001:00021F0F   715 0001:00021F14   716 0001:00021F19
   717 0001:00021F38   718 0001:00021F49   719 0001:00021F4A   721 0001:00021F80
   732 0001:00021F88   733 0001:00021F8F   734 0001:00021F91   735 0001:00021F93
   736 0001:00021FAC   738 0001:00021FBC   739 0001:00021FBD   740 0001:00021FC8
   741 0001:00021FE6   742 0001:00021FFE   743 0001:00022000   745 0001:0002203B
   746 0001:0002204A   747 0001:00022058   749 0001:0002205B   752 0001:0002206B
   753 0001:0002206D   756 0001:0002207E   757 0001:00022088   762 0001:00022090
   763 0001:00022096   767 0001:0002209D   768 0001:000220A5   770 0001:000220BF
   772 0001:000220C7   774 0001:000220D9   776 0001:000220DB   778 0001:000220E3
   780 0001:000220F5   782 0001:000220F7   784 0001:000220FF   787 0001:00022111
   788 0001:00022116   791 0001:0002212A   793 0001:0002212F   795 0001:0002213E
   797 0001:00022140   799 0001:00022145   801 0001:00022154   803 0001:00022156
   805 0001:0002215B   808 0001:0002216A   809 0001:0002216F   812 0001:00022183
   814 0001:00022188   816 0001:00022194   818 0001:00022197   820 0001:0002219C
   822 0001:000221A8   824 0001:000221AB   826 0001:000221B0   830 0001:000221BF
   831 0001:000221C4   833 0001:000221D6   836 0001:00022278   837 0001:0002229E
   838 0001:000222A5   839 0001:000222AF   840 0001:000222B3   841 0001:000222C9
   842 0001:000222CA   844 0001:00022306   850 0001:0002231C   851 0001:00022328
   852 0001:00022336   854 0001:0002233A   855 0001:00022344   858 0001:00022346
   859 0001:0002235A   860 0001:0002235E   861 0001:00022360   864 0001:00022362
   865 0001:0002236D   866 0001:0002237F   869 0001:00022395   870 0001:000223A0
   871 0001:000223A3   875 0001:000223A5   876 0001:000223A9   877 0001:000223B0
   878 0001:000223B2   884 0001:000223C8   885 0001:000223CC   886 0001:000223DA
   887 0001:000223F0   894 0001:00022400   895 0001:00022444   896 0001:00022451
   897 0001:00022455   900 0001:0002245A   901 0001:00022469   902 0001:0002246D
   903 0001:000224AD   904 0001:000224B1   905 0001:000224C0   906 0001:000224C4
   908 0001:000224C9   909 0001:000224D4   910 0001:000224DF   911 0001:000224E5
   912 0001:000224FB   914 0001:00022511   915 0001:0002251D   916 0001:00022521
   918 0001:00022526   919 0001:0002252B   920 0001:00022530   922 0001:00022534
   924 0001:00022544   925 0001:00022545   926 0001:00022546   928 0001:0002254B
   930 0001:00022555   931 0001:00022556   932 0001:00022557   934 0001:0002255C
   935 0001:0002256A   936 0001:0002257C   937 0001:00022586   938 0001:00022591
   940 0001:00022595   942 0001:0002259F   943 0001:000225AE   946 0001:000225D5
   947 0001:000225D9   949 0001:000225DB   950 0001:000225DF   953 0001:000225E1
   954 0001:000225E7   955 0001:00022607   956 0001:0002260B   957 0001:0002260F
   959 0001:00022611   960 0001:00022616   962 0001:00022618   963 0001:0002261C
   964 0001:0002261E   966 0001:0002262C   967 0001:00022635   968 0001:0002267D
   973 0001:0002269C   974 0001:000226A8   975 0001:000226B2   976 0001:000226B7
   977 0001:000226CA   978 0001:000226E8   984 0001:000226F0   985 0001:00022717
   986 0001:0002271E   987 0001:00022731   988 0001:0002273D   990 0001:00022763
   991 0001:0002276D   992 0001:00022794   993 0001:000227BA   999 0001:000227C4
  1000 0001:000227EF  1001 0001:000227F7  1002 0001:00022810  1003 0001:00022845
  1004 0001:00022851  1005 0001:0002286E  1006 0001:00022886  1007 0001:000228AC
  1043 0001:000228C0  1044 0001:000228F1  1046 0001:000228F8  1047 0001:00022902
  1049 0001:0002292E  1050 0001:00022952  1051 0001:00022953  1052 0001:0002295C
  1053 0001:00022965  1057 0001:00022967  1059 0001:00022971  1060 0001:0002299D
  1062 0001:000229F4

Line numbers for mxClipIcon(mxClipIcon.pas) segment .text

    46 0001:000229FC    47 0001:00022A07    48 0001:00022A0F    49 0001:00022A1D
    50 0001:00022A2B    51 0001:00022A3A    52 0001:00022A48    53 0001:00022A5E
    54 0001:00022A68    55 0001:00022A72    56 0001:00022A90    59 0001:00022AC2
    60 0001:00022ACA    63 0001:00022AE1    69 0001:00022AF5    79 0001:00022AFC
    80 0001:00022B07    81 0001:00022B11    82 0001:00022B1F    83 0001:00022B2E
    84 0001:00022B3C    85 0001:00022B46    86 0001:00022B4B    87 0001:00022B53
    88 0001:00022B5B    89 0001:00022B69    90 0001:00022B71    91 0001:00022B83
    92 0001:00022B91    93 0001:00022BA2    94 0001:00022BBC    95 0001:00022BCA
    96 0001:00022BD0    97 0001:00022BDB    98 0001:00022BE9    99 0001:00022BF5
   100 0001:00022C09   102 0001:00022C27   106 0001:00022C47   107 0001:00022C50
   110 0001:00022C67   114 0001:00022C84   117 0001:00022CA1   119 0001:00022CB1
   126 0001:00022CB8   127 0001:00022CC2   128 0001:00022CDB   129 0001:00022CE3
   130 0001:00022CEB   131 0001:00022CF9   132 0001:00022D09   133 0001:00022D14
   134 0001:00022D22   135 0001:00022D31   136 0001:00022D3F   137 0001:00022D54
   138 0001:00022D60   140 0001:00022D77   143 0001:00022D94   146 0001:00022DB2
   149 0001:00022DC2   152 0001:00022DC8   153 0001:00022DCF   154 0001:00022DD4
   155 0001:00022DE9   156 0001:00022DF8   157 0001:00022E06   159 0001:00022E1D
   160 0001:00022E25   162 0001:00022E32   191 0001:00022E38   192 0001:00022E4D
   193 0001:00022E9B   199 0001:00022EA0   200 0001:00022EB0   204 0001:00022EB4
   205 0001:00022EC7   206 0001:00022ED1   208 0001:00022ED3   215 0001:00022ED4
   216 0001:00022EE9   217 0001:00022EF3   218 0001:00022EFD   219 0001:00022F0C
   220 0001:00022F10   222 0001:00022F28   223 0001:00022F32   224 0001:00022F3D
   225 0001:00022F4B   226 0001:00022F5F   228 0001:00022F77   231 0001:00022F8A
   232 0001:00022F90   233 0001:00022F9F   234 0001:00022FAE   236 0001:00022FD8
   237 0001:00022FE6   239 0001:00022FF4   240 0001:00022FFD   241 0001:00023009
   255 0001:00023010   256 0001:00023020   257 0001:0002302A   259 0001:00023034
   260 0001:0002303A   261 0001:0002305A   263 0001:00023068   264 0001:00023072
   265 0001:0002307D   266 0001:0002308B   267 0001:0002309D   268 0001:000230B9
   269 0001:000230C4   270 0001:000230D2   271 0001:000230E1   272 0001:000230E7
   273 0001:000230ED   275 0001:00023109   278 0001:0002311A   279 0001:00023123
   280 0001:0002312E   281 0001:0002314D   282 0001:00023157   284 0001:00023161
   285 0001:00023167   286 0001:0002316B   287 0001:00023172   288 0001:0002318E
   289 0001:00023199   290 0001:000231A7   292 0001:000231C6   295 0001:000231E4
   297 0001:000231F7   317 0001:00023200   318 0001:00023212   319 0001:0002321B
   320 0001:00023226   321 0001:0002323A   322 0001:00023248   323 0001:00023252
   324 0001:0002325C   325 0001:00023266   326 0001:00023271   327 0001:0002327F
   328 0001:0002329D   329 0001:000232AB   331 0001:000232C5   333 0001:000232D8
   337 0001:000232DB   338 0001:000232E0   339 0001:000232EB   340 0001:000232F7
   341 0001:000232FF   342 0001:00023301   344 0001:00023303   345 0001:00023308
   346 0001:0002330C   347 0001:0002330E   350 0001:0002331F   351 0001:00023326
   352 0001:0002332A   353 0001:00023331   354 0001:0002333E   355 0001:0002334C
   356 0001:0002335A   357 0001:00023374   358 0001:00023387   359 0001:00023394
   360 0001:000233A3   361 0001:000233B2   362 0001:000233B8   363 0001:000233BE
   365 0001:000233CB   367 0001:000233DA   368 0001:000233E2   369 0001:000233ED
   370 0001:000233FB   371 0001:000233FE   373 0001:00023403   374 0001:0002340E
   375 0001:0002341C   376 0001:00023425   377 0001:0002342E   379 0001:00023450
   381 0001:0002346A   384 0001:0002348A   388 0001:000234AD   390 0001:000234C0
   396 0001:000234CC   397 0001:000234DB   398 0001:000234ED   399 0001:000234FB
   400 0001:00023502   401 0001:0002350E   402 0001:00023513   404 0001:0002351A
   405 0001:00023521   406 0001:0002352D   407 0001:00023532   410 0001:0002353B
   411 0001:00023544   414 0001:0002355A   415 0001:00023567   419 0001:0002357C
   420 0001:00023585   422 0001:0002358E   439 0001:00023598   440 0001:000235A1
   441 0001:000235A6   442 0001:000235B5   443 0001:000235C3   444 0001:000235CD
   445 0001:000235D9   446 0001:000235E9   447 0001:000235F7   448 0001:00023608
   449 0001:0002361B   452 0001:00023638   458 0001:0002364B   465 0001:00023650
   466 0001:0002365C   467 0001:00023666   468 0001:00023674   469 0001:00023682
   471 0001:000236B3   477 0001:000236C4   481 0001:000236FC   483 0001:00023705
   484 0001:00023715   485 0001:0002372C

Line numbers for mxBoxProcs(mxBoxProcs.pas) segment .text

    35 0001:0002373C    36 0001:0002373F    37 0001:00023750    38 0001:00023758
    39 0001:00023769    40 0001:00023771    41 0001:00023773    44 0001:00023778
    45 0001:0002377E    46 0001:0002378F    47 0001:0002379B    48 0001:000237AC
    49 0001:000237B7    50 0001:000237B9    53 0001:000237BC    54 0001:000237C5
    55 0001:000237D6    56 0001:000237E3    57 0001:000237F4    58 0001:000237FF
    61 0001:00023804    62 0001:00023807    63 0001:00023818    64 0001:00023824
    65 0001:00023835    66 0001:0002383E    67 0001:00023841    81 0001:00023844
    82 0001:0002384A    83 0001:0002385B    84 0001:0002386A    85 0001:0002387B
    86 0001:00023884    89 0001:00023888    90 0001:0002388B    91 0001:0002389C
    92 0001:000238A4    93 0001:000238B5    94 0001:000238BD    95 0001:000238BF
    98 0001:000238C4    99 0001:000238C7   100 0001:000238D8   101 0001:000238E4
   102 0001:000238F5   103 0001:000238FE   104 0001:00023900   108 0001:00023904
   109 0001:00023915   110 0001:00023926   111 0001:00023933   112 0001:00023944
   113 0001:00023951   114 0001:00023954   117 0001:0002395C   118 0001:00023965
   119 0001:00023976   120 0001:00023983   121 0001:00023994   122 0001:000239A1
   123 0001:000239AF   128 0001:000239B4   129 0001:000239D5   130 0001:000239E0
   132 0001:000239E4   133 0001:000239F1   134 0001:00023A1F   136 0001:00023A2F
   138 0001:00023A5D   143 0001:00023A64   144 0001:00023A69   145 0001:00023A6C
   146 0001:00023A77   147 0001:00023A8D   151 0001:00023A9A   152 0001:00023A9E
   153 0001:00023AA3   158 0001:00023AA8   159 0001:00023AAF   161 0001:00023ABA
   162 0001:00023AD3   163 0001:00023AE0   164 0001:00023AE9   165 0001:00023AEF
   166 0001:00023AF3   167 0001:00023B0B   170 0001:00023B14   175 0001:00023B18
   176 0001:00023B3A   177 0001:00023B44   178 0001:00023B4D   179 0001:00023B5A
   180 0001:00023B67   181 0001:00023B75   183 0001:00023B7C   184 0001:00023B8E
   186 0001:00023BC5   188 0001:00023BE9   191 0001:00023BFF   193 0001:00023C10
   195 0001:00023C26   197 0001:00023C3D   198 0001:00023C4A   201 0001:00023C7C
   206 0001:00023C84   207 0001:00023CA5   208 0001:00023CBC   210 0001:00023CF1
   212 0001:00023D14   215 0001:00023D29   216 0001:00023D2F   217 0001:00023D3B
   218 0001:00023D61   224 0001:00023D68   225 0001:00023D79   226 0001:00023D7B
   227 0001:00023D90   228 0001:00023D99   229 0001:00023D9E   230 0001:00023DBD
   231 0001:00023DCC   235 0001:00023DD0   249 0001:00023DDC   250 0001:00023DED
   252 0001:00023E08   253 0001:00023E18   254 0001:00023E3E   255 0001:00023E47
   256 0001:00023E4E   260 0001:00023E56   262 0001:00023E60   263 0001:00023E73
   264 0001:00023E78   266 0001:00023EA4   268 0001:00023EAF   269 0001:00023EC2
   270 0001:00023ED6   271 0001:00023EDC   272 0001:00023EE5   276 0001:00023EEF
   277 0001:00023EFC   278 0001:00023F0C   282 0001:00023F16   285 0001:00023F20
   286 0001:00023F27   287 0001:00023F3B   288 0001:00023F46   289 0001:00023F5D
   291 0001:00023F66   293 0001:00023F9C

Line numbers for MXLConst(MXLConst.pas) segment .text

    89 0001:00023FD4

Line numbers for mxProps(mxProps.pas) segment .text

   143 0001:000241D4   147 0001:000241D8   152 0001:000241DC   153 0001:000241F9
   154 0001:000241FD   155 0001:00024212   156 0001:0002421B   157 0001:00024226
   160 0001:0002423B   161 0001:00024240   163 0001:0002425E   166 0001:00024268
   167 0001:00024273   168 0001:0002428D   173 0001:00024290   174 0001:000242B4
   175 0001:000242C7   176 0001:000242D3   178 0001:00024300   179 0001:00024302
   180 0001:00024304   181 0001:0002430A   182 0001:00024330   187 0001:00024338
   188 0001:00024359   189 0001:00024364   190 0001:0002436D   192 0001:0002438A
   193 0001:00024390   194 0001:00024392   195 0001:00024396   196 0001:000243B7
   199 0001:000243C0   200 0001:000243C2   201 0001:000243C5   203 0001:000243EB
   207 0001:000243F0   208 0001:000243F6   213 0001:000243F8   214 0001:000243FF
   215 0001:00024408   216 0001:00024428   221 0001:0002442C   222 0001:00024435
   223 0001:0002443C   224 0001:00024444   225 0001:00024457   230 0001:00024468
   231 0001:00024490   232 0001:00024492   233 0001:000244A1   234 0001:000244AF
   235 0001:000244B3   236 0001:000244DC   237 0001:00024505   239 0001:0002454B
   244 0001:00024560   245 0001:0002457E   246 0001:00024585   247 0001:00024596
   248 0001:000245C4   255 0001:000245CC   256 0001:000245F8   257 0001:0002460A
   258 0001:0002461D   260 0001:0002463B   261 0001:00024641   262 0001:0002464F
   263 0001:00024660   266 0001:0002466E   267 0001:0002467A   268 0001:00024680
   269 0001:000246AB   272 0001:000246B6   273 0001:000246BF   274 0001:000246EB
   280 0001:000246F4   281 0001:000246FA   282 0001:00024710   283 0001:00024720
   284 0001:0002472E   285 0001:00024732   286 0001:00024748   287 0001:00024758
   288 0001:00024766   289 0001:0002476A   290 0001:0002476E   296 0001:00024774
   297 0001:0002477D   298 0001:00024789   303 0001:00024790   304 0001:000247AF
   305 0001:000247BD   306 0001:000247C5   307 0001:00024820   308 0001:00024831
   309 0001:00024842   310 0001:00024850   312 0001:0002485E   313 0001:0002486C
   317 0001:0002487A   320 0001:00024888   322 0001:00024896   323 0001:000248A4
   324 0001:000248B2   325 0001:000248BC   327 0001:000248C9   333 0001:000248E9
   334 0001:00024922   335 0001:0002492A   336 0001:00024985   337 0001:00024996
   338 0001:000249A4   339 0001:000249B2   341 0001:000249C0   342 0001:000249CE
   346 0001:000249DC   349 0001:000249EA   351 0001:000249F8   352 0001:00024A06
   353 0001:00024A14   358 0001:00024A2F   359 0001:00024A56   364 0001:00024A60
   365 0001:00024A7D   366 0001:00024A85   367 0001:00024AE0   368 0001:00024AF1
   369 0001:00024AFF   370 0001:00024B0D   372 0001:00024B1B   376 0001:00024B29
   377 0001:00024B37   380 0001:00024B45   382 0001:00024B53   383 0001:00024B61
   384 0001:00024B6F   387 0001:00024B7B   390 0001:00024B91   392 0001:00024BE7
   395 0001:00024BF0   396 0001:00024BF9   397 0001:00024C0A   400 0001:00024C10
   401 0001:00024C19   402 0001:00024C2C   405 0001:00024C30   406 0001:00024C39
   407 0001:00024C53   416 0001:00024C58   417 0001:00024C76   420 0001:00024CEF
   423 0001:00024D04   424 0001:00024D0D   425 0001:00024D19   429 0001:00024D20
   430 0001:00024D29   431 0001:00024D35   434 0001:00024D3C   435 0001:00024D45
   436 0001:00024D58   439 0001:00024D5C   440 0001:00024D7E   441 0001:00024DB2
   446 0001:00024DBC   447 0001:00024DC5   448 0001:00024DD8   456 0001:00024DDC
   457 0001:00024DFE   458 0001:00024E0A   459 0001:00024E16   460 0001:00024E2A
   461 0001:00024E2C   462 0001:00024E38   463 0001:00024E4E   464 0001:00024E65
   465 0001:00024E6B   466 0001:00024E94   473 0001:00024EC0   474 0001:00024EF1
   475 0001:00024EF8   476 0001:00024F05   477 0001:00024F47   478 0001:00024F51
   479 0001:00024F73   480 0001:00024F98   481 0001:00024FAA   483 0001:00025012
   489 0001:0002504C   490 0001:00025077   491 0001:00025083   492 0001:0002508B
   493 0001:00025095   494 0001:000250AB   495 0001:000250B9   496 0001:000250BF
   497 0001:000250DD   498 0001:000250F1   500 0001:00025103   503 0001:0002514D
   504 0001:00025181   516 0001:000251A8   518 0001:000251BE   519 0001:000251C6
   520 0001:000251D2   521 0001:000251DE   522 0001:000251F2   523 0001:00025206
   524 0001:00025220   525 0001:0002522E   527 0001:00025260   530 0001:00025270
   532 0001:0002527C   533 0001:000252A8   534 0001:000252AF   535 0001:000252C0
   536 0001:000252CA   538 0001:000252EF   539 0001:00025305   540 0001:0002535C
   541 0001:00025367   542 0001:00025375   544 0001:000253E7   545 0001:000253FC
   548 0001:0002548B   550 0001:000254A0   554 0001:000254B0   555 0001:000254C2
   556 0001:000254CF   559 0001:000254D1   560 0001:000254DC   562 0001:000254EA
   565 0001:00025529   567 0001:00025575   570 0001:000255AC   571 0001:000255B5
   572 0001:000255CA   576 0001:000255D0   577 0001:000255DD   583 0001:000255E0
   584 0001:00025605   585 0001:0002560F   586 0001:00025616   587 0001:00025621
   589 0001:0002563C   590 0001:0002564C   591 0001:0002564E   592 0001:0002566F
   595 0001:00025678   596 0001:00025696   598 0001:000256F4   602 0001:00025708
   603 0001:00025711   604 0001:00025728   610 0001:0002572C   611 0001:00025736
   615 0001:00025738   616 0001:00025745   619 0001:00025748   620 0001:0002576A
   621 0001:0002579E   626 0001:000257A8   627 0001:000257B2   638 0001:000257B4
   639 0001:000257D9   640 0001:000257DE   641 0001:000257F3   642 0001:00025800
   643 0001:0002580E   644 0001:00025822   645 0001:00025830   646 0001:0002583D
   648 0001:00025859   649 0001:0002585E   650 0001:00025866   651 0001:00025894
   659 0001:000258BC   660 0001:000258EE   661 0001:000258FB   662 0001:00025911
   663 0001:00025953   664 0001:00025981   665 0001:00025989   666 0001:00025998
   667 0001:000259A6   668 0001:000259B3   669 0001:000259F3   671 0001:00025A0B
   675 0001:00025A45   683 0001:00025A88   684 0001:00025AB1   685 0001:00025AC5
   686 0001:00025AE0   687 0001:00025AED   689 0001:00025AF2   690 0001:00025B00
   691 0001:00025B04   692 0001:00025B22   695 0001:00025B42   696 0001:00025B4A
   698 0001:00025B54   699 0001:00025B66   700 0001:00025B69   701 0001:00025B6D
   702 0001:00025BA6   729 0001:00025BCC   731 0001:00025BE2   732 0001:00025BEA
   733 0001:00025BF6   734 0001:00025C02   735 0001:00025C16   736 0001:00025C30
   737 0001:00025C3E   739 0001:00025C70   742 0001:00025C80   744 0001:00025C8C
   745 0001:00025CB9   746 0001:00025CCA   747 0001:00025CD4   749 0001:00025CF8
   750 0001:00025D0E   751 0001:00025D19   752 0001:00025D27   753 0001:00025D33
   755 0001:00025DAC   756 0001:00025DB9   757 0001:00025DC0   758 0001:00025DCE
   759 0001:00025DDB   760 0001:00025DE9   761 0001:00025DF7   764 0001:00025E86
   766 0001:00025E9B   769 0001:00025EB8   773 0001:00025EC8   774 0001:00025EDA
   775 0001:00025EE7   778 0001:00025EE9   779 0001:00025EF4   780 0001:00025F02
   782 0001:00025F41   784 0001:00025F8D   790 0001:00025FC4   791 0001:00025FE6
   792 0001:00026001   793 0001:0002600F   794 0001:00026021   796 0001:00026054
   798 0001:00026081   804 0001:0002608C   805 0001:000260AE   806 0001:000260C9
   807 0001:000260D7   808 0001:000260E9   810 0001:0002611C   812 0001:00026149
   819 0001:00026154   820 0001:00026160   821 0001:0002616C   822 0001:0002617B
   823 0001:00026189   824 0001:00026193   825 0001:000261AA   826 0001:000261B7
   827 0001:000261C6   828 0001:000261DD   829 0001:000261EB   831 0001:00026208
   832 0001:00026210   835 0001:0002621A   837 0001:0002622F   838 0001:00026237
   840 0001:00026244   845 0001:00026250   846 0001:00026254   847 0001:00026277
   848 0001:0002627E   856 0001:00026284   857 0001:000262AE   858 0001:000262BE
   859 0001:000262C8   860 0001:000262D6   861 0001:000262DC   862 0001:000262F2
   863 0001:00026311   864 0001:00026323   865 0001:00026331   866 0001:00026341
   867 0001:00026345   868 0001:00026356   869 0001:00026362   872 0001:0002637A
   874 0001:0002638F   875 0001:00026397   877 0001:000263CC   885 0001:000263D4
   886 0001:000263FE   887 0001:0002640E   888 0001:00026418   889 0001:00026426
   890 0001:0002642C   891 0001:00026442   892 0001:00026461   893 0001:00026473
   894 0001:00026481   895 0001:00026491   896 0001:00026495   897 0001:000264A6
   898 0001:000264B2   901 0001:000264CA   903 0001:000264DF   904 0001:000264E7
   906 0001:0002651C   910 0001:00026524   911 0001:00026530   914 0001:00026534
   915 0001:00026547   916 0001:00026561   917 0001:00026568   920 0001:00026570
   921 0001:00026574   922 0001:00026587   925 0001:0002658C   926 0001:0002658D
   927 0001:0002659C   929 0001:000265DC

Line numbers for mxHook(mxHook.pas) segment .text

   115 0001:00026A04   116 0001:00026A1E   117 0001:00026A23   121 0001:00026A24
   122 0001:00026A2E   123 0001:00026A35   128 0001:00026A38   129 0001:00026A4A
   130 0001:00026A53   131 0001:00026A62   132 0001:00026A70   133 0001:00026A75
   134 0001:00026A91   137 0001:00026A94   138 0001:00026AA0   139 0001:00026AA4
   140 0001:00026AAD   141 0001:00026ACB   142 0001:00026AE4   143 0001:00026AE9
   144 0001:00026AF1   145 0001:00026AF9   146 0001:00026AFE   147 0001:00026B15
   150 0001:00026B1C   151 0001:00026B22   152 0001:00026B30   153 0001:00026B3A
   154 0001:00026B3D   156 0001:00026B47   157 0001:00026B4E   160 0001:00026B54
   161 0001:00026B57   162 0001:00026B5C   163 0001:00026B64   164 0001:00026B74
   170 0001:00026B78   171 0001:00026B8A   173 0001:00026BC4   174 0001:00026BDA
   175 0001:00026BE8   176 0001:00026BEE   177 0001:00026C0D   178 0001:00026C13
   180 0001:00026C3F   182 0001:00026C53   183 0001:00026C5B   184 0001:00026C68
   189 0001:00026C74   190 0001:00026C77   193 0001:00026C95   194 0001:00026C9D
   195 0001:00026CAD   196 0001:00026CB2   197 0001:00026CB5   200 0001:00026CC9
   203 0001:00026CCC   204 0001:00026CCF   205 0001:00026CD5   207 0001:00026CFC
   209 0001:00026D10   210 0001:00026D15   215 0001:00026D18   216 0001:00026D25
   217 0001:00026D29   218 0001:00026D36   220 0001:00026D4F   221 0001:00026D61
   222 0001:00026D6F   223 0001:00026D79   226 0001:00026DA7   229 0001:00026DE8
   231 0001:00026E01   232 0001:00026E09   233 0001:00026E11   235 0001:00026E2F
   239 0001:00026E48   242 0001:00026E50   243 0001:00026E56   244 0001:00026E5B
   245 0001:00026E62   246 0001:00026E65   248 0001:00026E75   253 0001:00026E78
   254 0001:00026E8A   255 0001:00026E93   256 0001:00026EB8   259 0001:00026EBC
   260 0001:00026EC9   261 0001:00026EDB   262 0001:00026EE3   263 0001:00026EFA
   268 0001:00026F00   269 0001:00026F0C   271 0001:00026F1A   272 0001:00026F24
   273 0001:00026F27   274 0001:00026F39   276 0001:00026F42   277 0001:00026F4A
   278 0001:00026F4D   279 0001:00026F68   281 0001:00026F71   284 0001:00026F98
   286 0001:00026FAC   291 0001:00026FB4   292 0001:00026FBC   293 0001:00026FC0
   294 0001:00026FCB   295 0001:00026FD9   296 0001:00026FE2   297 0001:00026FE4
   298 0001:00026FE8   299 0001:00026FEA   302 0001:00026FF0   303 0001:00026FFB
   304 0001:00027007   305 0001:0002700D   306 0001:0002701C   307 0001:0002702A
   308 0001:00027034   310 0001:0002704D   311 0001:00027055   314 0001:00027062
   319 0001:00027068   320 0001:0002707A   321 0001:00027083   322 0001:0002709E
   325 0001:000270A4   326 0001:000270AF   327 0001:000270B8   328 0001:000270C1
   329 0001:000270D8   333 0001:000270DC   334 0001:000270E1   335 0001:000270F1
   339 0001:000270F4   342 0001:00027106   346 0001:00027109   349 0001:0002710C
   350 0001:0002710F   351 0001:0002711B   352 0001:0002712F   353 0001:00027133
   356 0001:00027138   357 0001:0002713C   358 0001:0002713F   359 0001:0002714C
   360 0001:00027152   363 0001:00027158   364 0001:0002715B   365 0001:00027162
   366 0001:00027166   369 0001:00027168   370 0001:0002716B   371 0001:00027192
   374 0001:00027194   375 0001:00027198   377 0001:000271C9   380 0001:000271CC
   381 0001:000271D2   382 0001:000271DD   383 0001:000271FA   386 0001:00027200
   387 0001:00027206   388 0001:00027216   393 0001:0002721C   394 0001:00027220
   395 0001:0002722C   396 0001:0002724F   397 0001:0002725A   399 0001:00027260
   400 0001:0002726D   401 0001:00027278   403 0001:000272A0   407 0001:000272B8
   408 0001:000272C3   409 0001:000272C6   412 0001:000272C8   413 0001:000272C9
   414 0001:000272DD   417 0001:000272E0   418 0001:000272E1   419 0001:000272F5
   422 0001:000272F8   423 0001:00027301   424 0001:0002730C   425 0001:0002731C
   426 0001:00027327   427 0001:00027337   428 0001:00027340   434 0001:00027344
   435 0001:0002734C   436 0001:00027357   437 0001:0002735A   438 0001:00027363
   440 0001:00027366   442 0001:00027373   443 0001:00027389   444 0001:0002739F
   446 0001:000273AA   459 0001:000273B0   460 0001:000273B6   461 0001:000273B8
   476 0001:000273BC   477 0001:000273C5   478 0001:000273C8   479 0001:000273D1
   481 0001:000273D9   482 0001:000273EE   483 0001:000273FC   485 0001:0002740E
   496 0001:0002742C   499 0001:00027434   500 0001:0002743B   502 0001:0002743D
   503 0001:0002743E   504 0001:0002744D   510 0001:00027454   514 0001:00027487

Line numbers for mxFileUtil(mxFileUtil.pas) segment .text

   207 0001:00027750   208 0001:00027760   209 0001:00027765   210 0001:0002776A
   211 0001:00027772   212 0001:00027779   213 0001:0002777C   215 0001:0002778B
   217 0001:00027794   218 0001:00027799   219 0001:0002779E   221 0001:000277A9
   227 0001:000277B4   228 0001:000277C6   229 0001:000277CF   230 0001:000277DE
   231 0001:000277E2   232 0001:000277E6   233 0001:000277EA   234 0001:0002780E
   237 0001:00027814   238 0001:0002781F   239 0001:0002782B   240 0001:00027842
   248 0001:00027848   249 0001:00027869   250 0001:0002787B   251 0001:00027885
   252 0001:0002788F   253 0001:000278A1   254 0001:000278A9   255 0001:000278B3
   256 0001:000278C0   257 0001:000278CD   258 0001:000278DE   262 0001:00027935
   263 0001:00027939   264 0001:0002794E   267 0001:00027957   268 0001:00027988
   273 0001:00027998   274 0001:000279BD   275 0001:000279C3   278 0001:000279D0
   279 0001:000279E1   280 0001:00027A00   283 0001:00027A13   284 0001:00027A1B
   287 0001:00027A24   288 0001:00027A53   291 0001:00027A5C   292 0001:00027A63
   293 0001:00027A6A   294 0001:00027A7F   298 0001:00027A84   299 0001:00027A9C
   302 0001:00027AA0   303 0001:00027AA7   304 0001:00027AAE   306 0001:00027AC8
   307 0001:00027AD1   311 0001:00027AD8   312 0001:00027ADD   315 0001:00027AE0
   316 0001:00027AE3   319 0001:00027AF9   321 0001:00027B0A   322 0001:00027B11
   325 0001:00027B14   326 0001:00027B17   327 0001:00027B1E   328 0001:00027B23
   335 0001:00027B28   336 0001:00027B50   337 0001:00027B5C   339 0001:00027B63
   340 0001:00027B69   343 0001:00027B7D   346 0001:00027B8F   347 0001:00027B9D
   349 0001:00027BAA   350 0001:00027BB5   351 0001:00027BC8   352 0001:00027BCD
   353 0001:00027BD3   355 0001:00027BDC   356 0001:00027BE3   357 0001:00027BEA
   358 0001:00027BED   359 0001:00027BFA   361 0001:00027BFF   362 0001:00027C0C
   363 0001:00027C14   364 0001:00027C1E   365 0001:00027C2C   366 0001:00027C32
   367 0001:00027C47   370 0001:00027C79   372 0001:00027C84   373 0001:00027C8F
   375 0001:00027CA2   378 0001:00027CC0   380 0001:00027CFD   386 0001:00027D04
   387 0001:00027D10   388 0001:00027D18   389 0001:00027D22   390 0001:00027D30
   391 0001:00027D3E   393 0001:00027D54   394 0001:00027D5C   397 0001:00027D79
   398 0001:00027D81   400 0001:00027D95   404 0001:00027D9C   405 0001:00027DAB
   406 0001:00027DB9   407 0001:00027DD0   408 0001:00027DDE   409 0001:00027DEB
   410 0001:00027DF8   411 0001:00027DFE   412 0001:00027E09   414 0001:00027E29
   417 0001:00027E39   418 0001:00027E4E   422 0001:00027E5C   423 0001:00027E6B
   424 0001:00027E82   425 0001:00027E90   426 0001:00027E97   427 0001:00027EA4
   428 0001:00027EB1   429 0001:00027EB7   430 0001:00027EC2   432 0001:00027EE2
   434 0001:00027EF5   474 0001:000281B8   475 0001:000281CA   476 0001:000281D3
   477 0001:000281F4   485 0001:000281FC   486 0001:00028208   487 0001:00028210
   488 0001:0002821A   489 0001:00028228   491 0001:0002823E   492 0001:00028246
   494 0001:0002825A   511 0001:00028260   512 0001:00028264   513 0001:00028266
   514 0001:0002826A   515 0001:0002828B   517 0001:0002828F   518 0001:0002829E
   520 0001:000282A4   521 0001:000282A5   523 0001:000282AA   525 0001:000282B0
   526 0001:000282BA   527 0001:000282BE   528 0001:000282CD   530 0001:000282DB
   532 0001:000282F9   533 0001:0002830D   534 0001:0002831A   535 0001:00028329
   536 0001:00028334   537 0001:0002833F   538 0001:00028345   539 0001:0002834C
   540 0001:0002836B   541 0001:00028376   542 0001:00028388   544 0001:0002839F
   545 0001:000283AB   547 0001:000283C2   560 0001:000283C8   561 0001:000283CE
   562 0001:000283D7   569 0001:000283ED   570 0001:00028406   571 0001:00028414
   573 0001:00028420   576 0001:0002843C   577 0001:00028442   578 0001:0002844B
   585 0001:00028461   587 0001:00028484   589 0001:00028499   595 0001:0002849C
   596 0001:000284BA   597 0001:000284C8   598 0001:000284F6   612 0001:000284FC
   613 0001:0002851E   615 0001:0002852A   619 0001:00028543   620 0001:0002855A
   622 0001:0002858B   624 0001:0002859E   628 0001:000285C8   633 0001:000285CC
   634 0001:000285EC   635 0001:000285FD   636 0001:0002860B   637 0001:00028618
   638 0001:00028625   639 0001:0002862B   641 0001:00028650   642 0001:00028659
   644 0001:00028662   645 0001:00028669   646 0001:0002866F   647 0001:00028686
   648 0001:0002868A   649 0001:0002869F   651 0001:000286C6   653 0001:000286F8
   659 0001:0002870C   660 0001:00028716   672 0001:00028718   674 0001:00028743
   675 0001:0002874F   677 0001:00028761   680 0001:00028766   681 0001:00028770
   682 0001:00028781   683 0001:000287A6   684 0001:000287B3   685 0001:000287C1
   686 0001:000287C3   687 0001:000287CD   688 0001:000287DC   689 0001:000287E2
   690 0001:0002881B   691 0001:00028829   692 0001:0002882F   693 0001:0002883A
   694 0001:00028844   696 0001:0002884E   697 0001:00028861   698 0001:00028865
   699 0001:0002886D   700 0001:00028875   702 0001:00028882   703 0001:0002888D
   704 0001:00028893   705 0001:000288CF   707 0001:000288DD   708 0001:000288F2
   709 0001:000288F7   710 0001:00028923   711 0001:00028925   712 0001:00028929
   713 0001:00028938   715 0001:00028964   716 0001:0002896A   717 0001:00028974
   718 0001:00028980   720 0001:0002899F   723 0001:000289BC   726 0001:000289D9
   727 0001:000289E7   728 0001:000289ED   730 0001:00028A36   736 0001:00028A40
   737 0001:00028A59   738 0001:00028A63   739 0001:00028A71   740 0001:00028A78
   741 0001:00028A7C   742 0001:00028A80   743 0001:00028A8C   744 0001:00028A98
   746 0001:00028ABC   750 0001:00028AC4   752 0001:00028AC5   753 0001:00028ACF
   756 0001:00028ADC   757 0001:00028AE1   764 0001:00028AE4   765 0001:00028AF0
   766 0001:00028B04   767 0001:00028B09   768 0001:00028B0F   770 0001:00028B18
   771 0001:00028B21   772 0001:00028B2A   775 0001:00028B2C   776 0001:00028B40
   792 0001:00028B48   793 0001:00028B4B   794 0001:00028B50   795 0001:00028B55
   797 0001:00028B68   798 0001:00028B74   803 0001:00028B78   804 0001:00028B7B
   805 0001:00028B80   806 0001:00028B90   811 0001:00028B94   812 0001:00028BCD
   813 0001:00028BF6   814 0001:00028C04   816 0001:00028C0A   820 0001:00028C31
   821 0001:00028C5D   823 0001:00028C63   825 0001:00028C7F   827 0001:00028CCB
   832 0001:00028CD0   833 0001:00028CD3   834 0001:00028CD5   835 0001:00028CDE
   836 0001:00028CFD   848 0001:00028D04   849 0001:00028D4C   850 0001:00028D57
   851 0001:00028D61   852 0001:00028D98   853 0001:00028DA6   854 0001:00028DB0
   856 0001:00028DCC   857 0001:00028DDC   858 0001:00028E11   859 0001:00028E1B
   860 0001:00028E21   861 0001:00028E50   864 0001:00028E80   867 0001:00028EA5
   869 0001:00028EB8   872 0001:00028EDC   873 0001:00028EE4   875 0001:00028F2D
   881 0001:00028F40   882 0001:00028F49   890 0001:00028F5F   896 0001:00028F68
   897 0001:00028F71   902 0001:00028F8B   908 0001:00028F94   909 0001:00028F9D
   914 0001:00028FB7   922 0001:00028FC0   923 0001:00028FE1   924 0001:00028FE5
   925 0001:00028FF7   926 0001:00029012   927 0001:00029016   929 0001:00029018
   930 0001:0002903C   931 0001:00029044   932 0001:0002905B   933 0001:00029075
   934 0001:000290B4   937 0001:000290D8   938 0001:000290E1   939 0001:000290F1
   941 0001:000290F5   942 0001:000290FA   945 0001:00029100   946 0001:00029109
   947 0001:00029119   949 0001:0002911D   950 0001:00029122   954 0001:00029128
   955 0001:0002912E   956 0001:00029148   958 0001:0002914C   959 0001:00029151
   962 0001:00029158   963 0001:0002915E   964 0001:00029178   966 0001:0002917C
   967 0001:00029181  1055 0001:00029188  1056 0001:00029194  1057 0001:000291A4
  1058 0001:000291A9  1059 0001:000291B9  1061 0001:000291D3  1062 0001:000291DA
  1063 0001:000291E0  1069 0001:000291EC  1070 0001:000291F8  1071 0001:00029208
  1072 0001:0002920D  1073 0001:00029220  1075 0001:00029237  1076 0001:0002923E
  1077 0001:00029244  1083 0001:00029250  1084 0001:0002926E  1085 0001:00029275
  1086 0001:0002927E  1087 0001:00029289  1088 0001:0002928D  1089 0001:000292B8
  1090 0001:000292BC  1091 0001:000292BF  1094 0001:000292CE  1095 0001:00029306
  1101 0001:0002931C  1102 0001:0002933A  1103 0001:00029341  1104 0001:0002934A
  1105 0001:00029355  1106 0001:00029359  1107 0001:00029384  1108 0001:00029388
  1109 0001:0002938B  1112 0001:0002939A  1113 0001:000293D2  1161 0001:000293E8
  1162 0001:00029416  1163 0001:0002941D  1164 0001:0002942B  1166 0001:0002944E
  1167 0001:0002945C  1168 0001:00029477  1169 0001:00029485  1170 0001:00029496
  1171 0001:000294A6  1172 0001:000294D9  1173 0001:000294EC  1174 0001:000294F8
  1175 0001:00029516  1178 0001:0002953A  1185 0001:00029557  1191 0001:00029574
  1193 0001:000295B1  1200 0001:000295D4  1201 0001:00029602  1202 0001:00029609
  1203 0001:00029617  1205 0001:0002963A  1206 0001:00029648  1207 0001:00029659
  1208 0001:00029669  1209 0001:0002969C  1212 0001:000296CA  1218 0001:000296E7
  1220 0001:00029721  1231 0001:00029774

Line numbers for mxCConst(mxCConst.pas) segment .text

    55 0001:000297AC

Line numbers for mxFileCtrl(mxFileCtrl.pas) segment .text

   408 0001:0002B9D0   409 0001:0002B9D9   410 0001:0002B9E5   412 0001:0002B9FA
   413 0001:0002BA05   418 0001:0002BA18   419 0001:0002BA2A   420 0001:0002BA33
   421 0001:0002BA3C   422 0001:0002BA45   423 0001:0002BA65   431 0001:0002BA68
   432 0001:0002BA88   434 0001:0002BA8E   435 0001:0002BA98   437 0001:0002BAA3
   438 0001:0002BAAE   439 0001:0002BAB8   441 0001:0002BAC2   442 0001:0002BACC
   443 0001:0002BAEE   446 0001:0002BB52   454 0001:0002BB58   455 0001:0002BB5C
   456 0001:0002BB6A   459 0001:0002BB74   461 0001:0002BB7B   462 0001:0002BB7D
   465 0001:0002BB90   466 0001:0002BB92   467 0001:0002BB99   468 0001:0002BBAA
   469 0001:0002BBB6   471 0001:0002BBBA   472 0001:0002BBC9   475 0001:0002BBD9
   476 0001:0002BBE0   477 0001:0002BBE4   479 0001:0002BBF2   487 0001:0002BC14
   488 0001:0002BC3A   489 0001:0002BC44   490 0001:0002BC4E   492 0001:0002BC58
   494 0001:0002BC6E   495 0001:0002BC84   498 0001:0002BC98   501 0001:0002BCA2
   503 0001:0002BCB1   504 0001:0002BCB9   506 0001:0002BCC8   507 0001:0002BCCE
   509 0001:0002BCD8   510 0001:0002BCE0   512 0001:0002BD30   519 0001:0002BD5C
   520 0001:0002BD93   521 0001:0002BD9D   522 0001:0002BDAB   523 0001:0002BDB2
   525 0001:0002BDFE   526 0001:0002BE1A   527 0001:0002BE21   528 0001:0002BE26
   530 0001:0002BE42   531 0001:0002BE5C   533 0001:0002BE9E   535 0001:0002BED4
   542 0001:0002BEF8   543 0001:0002BF23   544 0001:0002BF2A   545 0001:0002BF34
   546 0001:0002BF38   547 0001:0002BF3C   549 0001:0002BF54   550 0001:0002BF64
   551 0001:0002BF69   553 0001:0002BF85   556 0001:0002BFA1   557 0001:0002BFCF
   563 0001:0002BFD8   564 0001:0002C000   565 0001:0002C00A   566 0001:0002C011
   567 0001:0002C01B   568 0001:0002C02E   571 0001:0002C049   572 0001:0002C053
   573 0001:0002C05F   575 0001:0002C06C   576 0001:0002C082   577 0001:0002C098
   579 0001:0002C0A1   582 0001:0002C0A4   583 0001:0002C0B2   584 0001:0002C0BE
   585 0001:0002C0CB   586 0001:0002C0DF   587 0001:0002C0F4   588 0001:0002C102
   589 0001:0002C116   592 0001:0002C132   593 0001:0002C13B   594 0001:0002C15B
   595 0001:0002C166   597 0001:0002C172   598 0001:0002C17D   599 0001:0002C189
   603 0001:0002C1BF   604 0001:0002C1CB   605 0001:0002C1D5   607 0001:0002C1E5
   608 0001:0002C1FA   610 0001:0002C201   611 0001:0002C206   613 0001:0002C21F
   614 0001:0002C22B   616 0001:0002C262   623 0001:0002C290   624 0001:0002C297
   625 0001:0002C2A0   626 0001:0002C2B0   627 0001:0002C2B7   628 0001:0002C2BE
   629 0001:0002C2C6   630 0001:0002C2C9   637 0001:0002C2D0   638 0001:0002C2EB
   639 0001:0002C2F4   640 0001:0002C300   641 0001:0002C307   642 0001:0002C319
   643 0001:0002C325   644 0001:0002C330   645 0001:0002C350   648 0001:0002C358
   649 0001:0002C363   650 0001:0002C36E   651 0001:0002C379   652 0001:0002C384
   653 0001:0002C38F   654 0001:0002C39A   655 0001:0002C3B1   665 0001:0002C3B4
   666 0001:0002C3D3   667 0001:0002C430   669 0001:0002C448   671 0001:0002C46B
   672 0001:0002C476   673 0001:0002C47E   675 0001:0002C480   676 0001:0002C491
   677 0001:0002C498   678 0001:0002C4C0   679 0001:0002C4CC   681 0001:0002C4D7
   682 0001:0002C507   683 0001:0002C554   684 0001:0002C574   685 0001:0002C594
   686 0001:0002C5B4   688 0001:0002C5D2   689 0001:0002C60B   695 0001:0002C624
   696 0001:0002C645   698 0001:0002C670   700 0001:0002C676   701 0001:0002C67F
   705 0001:0002C691   706 0001:0002C69A   708 0001:0002C6AA   711 0001:0002C6C0
   713 0001:0002C6D6   714 0001:0002C6E6   716 0001:0002C70A   717 0001:0002C716
   719 0001:0002C718   721 0001:0002C71E   722 0001:0002C733   724 0001:0002C75B
   729 0001:0002C764   730 0001:0002C768   731 0001:0002C76E   732 0001:0002C774
   733 0001:0002C77E   734 0001:0002C787   737 0001:0002C78C   738 0001:0002C78D
   739 0001:0002C79F   740 0001:0002C7A7   742 0001:0002C7AB   743 0001:0002C7B1
   745 0001:0002C7BA   748 0001:0002C7BC   749 0001:0002C7BF   750 0001:0002C7C6
   751 0001:0002C7D0   752 0001:0002C7DD   759 0001:0002C7E0   760 0001:0002C80A
   762 0001:0002C813   763 0001:0002C81E   764 0001:0002C823   765 0001:0002C833
   767 0001:0002C83B   768 0001:0002C844   776 0001:0002C8C2   777 0001:0002C8CB
   780 0001:0002C91E   783 0001:0002C928   784 0001:0002C93F   785 0001:0002C946
   786 0001:0002C954   787 0001:0002C997   790 0001:0002C99C   791 0001:0002C99F
   792 0001:0002C9A6   793 0001:0002C9AD   794 0001:0002C9B4   799 0001:0002C9B8
   800 0001:0002C9BC   801 0001:0002C9C6   802 0001:0002C9E2   803 0001:0002C9EE
   806 0001:0002C9F4   808 0001:0002C9F8   809 0001:0002CA0C   810 0001:0002CA25
   811 0001:0002CA39   812 0001:0002CA52   813 0001:0002CA66   814 0001:0002CA7F
   815 0001:0002CA93   816 0001:0002CAAC   817 0001:0002CAC0   818 0001:0002CAD9
   822 0001:0002CB00   823 0001:0002CB09   824 0001:0002CB14   825 0001:0002CB21
   826 0001:0002CB29   833 0001:0002CB30   834 0001:0002CB34   835 0001:0002CB36
   836 0001:0002CB44   838 0001:0002CB48   839 0001:0002CB49   840 0001:0002CB4A
   842 0001:0002CB57   845 0001:0002CB5C   846 0001:0002CB6E   847 0001:0002CB77
   848 0001:0002CB83   849 0001:0002CB8C   850 0001:0002CB95   851 0001:0002CB9F
   852 0001:0002CBAC   853 0001:0002CBCA   856 0001:0002CBD0   857 0001:0002CBDB
   858 0001:0002CBE6   859 0001:0002CBF1   860 0001:0002CBFC   861 0001:0002CC13
   864 0001:0002CC18   865 0001:0002CC37   867 0001:0002CC50   869 0001:0002CC54
   870 0001:0002CC91   872 0001:0002CC9E   874 0001:0002CCA7   875 0001:0002CCB1
   878 0001:0002CCD8   881 0001:0002CCE4   882 0001:0002CCE5   883 0001:0002CCF7
   884 0001:0002CCFF   886 0001:0002CD03   887 0001:0002CD09   889 0001:0002CD12
   892 0001:0002CD14   893 0001:0002CD17   894 0001:0002CD1D   895 0001:0002CD2A
   896 0001:0002CD31   899 0001:0002CD34   902 0001:0002CD3A   903 0001:0002CD49
   904 0001:0002CD59   905 0001:0002CD65   906 0001:0002CD72   907 0001:0002CD7C
   908 0001:0002CD86   911 0001:0002CD8C   912 0001:0002CDA2   913 0001:0002CDE2
   916 0001:0002CDE8   917 0001:0002CDEB   918 0001:0002CDF5   919 0001:0002CDFF
   922 0001:0002CE04   923 0001:0002CE0A   924 0001:0002CE1C   926 0001:0002CE28
   927 0001:0002CE31   931 0001:0002CE34   932 0001:0002CE3D   934 0001:0002CE47
   935 0001:0002CE50   946 0001:0002CE54   947 0001:0002CE8A   948 0001:0002CE8F
   949 0001:0002CEB7   950 0001:0002CEC5   952 0001:0002CEC9   954 0001:0002CED7
   956 0001:0002CEFB   957 0001:0002CF08   960 0001:0002CF0B   963 0001:0002CF27
   965 0001:0002CF6E   977 0001:0002CF98   978 0001:0002CFC2   979 0001:0002CFD0
   980 0001:0002CFDE   981 0001:0002CFEC   982 0001:0002CFEE   983 0001:0002D00F
   984 0001:0002D02F   985 0001:0002D03F   986 0001:0002D04F   988 0001:0002D065
   989 0001:0002D07F   990 0001:0002D080   993 0001:0002D0AF   994 0001:0002D0C0
   996 0001:0002D0D0   998 0001:0002D0DD   999 0001:0002D0EC  1001 0001:0002D0F0
  1002 0001:0002D104  1003 0001:0002D115  1004 0001:0002D124  1005 0001:0002D13E
  1006 0001:0002D13F  1009 0001:0002D152  1011 0001:0002D16C  1012 0001:0002D17E
  1013 0001:0002D18D  1014 0001:0002D19B  1016 0001:0002D1A5  1017 0001:0002D1B9
  1018 0001:0002D1D0  1020 0001:0002D20B  1023 0001:0002D228  1025 0001:0002D23E
  1026 0001:0002D24A  1027 0001:0002D287  1030 0001:0002D29C  1031 0001:0002D2A0
  1032 0001:0002D2B4  1033 0001:0002D2C6  1034 0001:0002D2DA  1035 0001:0002D2EC
  1036 0001:0002D300  1037 0001:0002D312  1040 0001:0002D35C  1041 0001:0002D35F
  1042 0001:0002D366  1043 0001:0002D36D  1046 0001:0002D370  1047 0001:0002D373
  1048 0001:0002D388  1049 0001:0002D38F  1050 0001:0002D3A7  1058 0001:0002D3AC
  1059 0001:0002D3D9  1061 0001:0002D3E2  1062 0001:0002D3ED  1063 0001:0002D3F4
  1065 0001:0002D400  1066 0001:0002D410  1068 0001:0002D418  1069 0001:0002D420
  1071 0001:0002D435  1072 0001:0002D43F  1078 0001:0002D4BD  1080 0001:0002D518
  1087 0001:0002D524  1088 0001:0002D54F  1089 0001:0002D557  1091 0001:0002D56A
  1092 0001:0002D578  1093 0001:0002D585  1094 0001:0002D589  1095 0001:0002D5A9
  1096 0001:0002D5B1  1097 0001:0002D5D4  1098 0001:0002D5DC  1101 0001:0002D5EC
  1102 0001:0002D5EE  1103 0001:0002D5F3  1106 0001:0002D617  1107 0001:0002D618
  1109 0001:0002D624  1110 0001:0002D63E  1111 0001:0002D641  1112 0001:0002D648
  1114 0001:0002D653  1117 0001:0002D6AF  1120 0001:0002D6C4  1121 0001:0002D6C7
  1122 0001:0002D6CE  1123 0001:0002D6D8  1124 0001:0002D6EF  1127 0001:0002D6F4
  1128 0001:0002D6F7  1129 0001:0002D6FE  1130 0001:0002D705  1135 0001:0002D708
  1136 0001:0002D70C  1137 0001:0002D716  1138 0001:0002D734  1139 0001:0002D73D
  1143 0001:0002D740  1144 0001:0002D748  1147 0001:0002D74C  1148 0001:0002D76B
  1149 0001:0002D784  1150 0001:0002D7C8  1157 0001:0002D7DC  1158 0001:0002D7FE
  1159 0001:0002D80D  1160 0001:0002D828  1161 0001:0002D839  1162 0001:0002D847
  1164 0001:0002D854  1165 0001:0002D85E  1166 0001:0002D86B  1168 0001:0002D875
  1171 0001:0002D88D  1173 0001:0002D89F  1174 0001:0002D8CC  1177 0001:0002D8D4
  1178 0001:0002D8DA  1179 0001:0002D8E3  1180 0001:0002D8ED  1181 0001:0002D8F4
  1185 0001:0002D8F8  1186 0001:0002D901  1187 0001:0002D90C  1189 0001:0002D911
  1190 0001:0002D923  1191 0001:0002D935  1193 0001:0002D945  1198 0001:0002D94C
  1199 0001:0002D964  1201 0001:0002D96E  1202 0001:0002D971  1203 0001:0002D97D
  1205 0001:0002D9BB  1213 0001:0002D9C4  1214 0001:0002D9D6  1215 0001:0002D9DF
  1217 0001:0002D9EB  1218 0001:0002D9F6  1220 0001:0002DA03  1221 0001:0002DA13
  1222 0001:0002DA1F  1223 0001:0002DA29  1224 0001:0002DA33  1225 0001:0002DA3C
  1226 0001:0002DA45  1227 0001:0002DA63  1230 0001:0002DA78  1231 0001:0002DA83
  1232 0001:0002DA8E  1233 0001:0002DA99  1234 0001:0002DAA4  1235 0001:0002DABB
  1239 0001:0002DAC0  1240 0001:0002DAC8  1243 0001:0002DACC  1244 0001:0002DACF
  1245 0001:0002DAD6  1246 0001:0002DAE0  1249 0001:0002DAE4  1250 0001:0002DAE7
  1251 0001:0002DAFA  1255 0001:0002DB08  1256 0001:0002DB10  1259 0001:0002DB14
  1260 0001:0002DB18  1261 0001:0002DB2C  1262 0001:0002DB45  1263 0001:0002DB59
  1264 0001:0002DB72  1265 0001:0002DB86  1266 0001:0002DB9F  1282 0001:0002DBCC
  1286 0001:0002DC10  1287 0001:0002DC16  1290 0001:0002DC26  1291 0001:0002DC2D
  1292 0001:0002DC43  1294 0001:0002DC52  1295 0001:0002DC65  1297 0001:0002DC70
  1298 0001:0002DC75  1299 0001:0002DC84  1300 0001:0002DC92  1301 0001:0002DCA2
  1303 0001:0002DCAA  1304 0001:0002DCB5  1305 0001:0002DCB9  1306 0001:0002DCBC
  1309 0001:0002DCE6  1310 0001:0002DD02  1312 0001:0002DD0B  1313 0001:0002DD4E
  1314 0001:0002DD5E  1318 0001:0002DD7D  1319 0001:0002DD9C  1320 0001:0002DDA5
  1322 0001:0002DDE1  1323 0001:0002DDEA  1325 0001:0002DE03  1326 0001:0002DE09
  1327 0001:0002DE19  1328 0001:0002DE2C  1330 0001:0002DE37  1332 0001:0002DE3B
  1333 0001:0002DE3E  1335 0001:0002DE3F  1338 0001:0002DE56  1340 0001:0002DE6E
  1342 0001:0002DEC2  1345 0001:0002DF18  1346 0001:0002DF1B  1347 0001:0002DF22
  1348 0001:0002DF34  1349 0001:0002DF3E  1352 0001:0002DF40  1353 0001:0002DF58
  1354 0001:0002DF68  1356 0001:0002DF71  1357 0001:0002DF87  1359 0001:0002DF9A
  1360 0001:0002DFB2  1362 0001:0002DFBD  1363 0001:0002DFF7  1366 0001:0002DFFC
  1367 0001:0002E000  1369 0001:0002E008  1370 0001:0002E00E  1371 0001:0002E030
  1372 0001:0002E037  1374 0001:0002E03E  1379 0001:0002E044  1382 0001:0002E04B
  1383 0001:0002E057  1384 0001:0002E077  1386 0001:0002E080  1387 0001:0002E08F
  1390 0001:0002E094  1391 0001:0002E0AD  1393 0001:0002E0C5  1395 0001:0002E0ED
  1397 0001:0002E114  1400 0001:0002E11C  1401 0001:0002E134  1402 0001:0002E13C
  1404 0001:0002E140  1405 0001:0002E147  1406 0001:0002E157  1408 0001:0002E171
  1410 0001:0002E1A4  1417 0001:0002E1AC  1418 0001:0002E1D6  1420 0001:0002E1DF
  1421 0001:0002E1EA  1422 0001:0002E1F1  1424 0001:0002E1FE  1425 0001:0002E20E
  1427 0001:0002E216  1432 0001:0002E294  1435 0001:0002E2A1  1437 0001:0002E2E4
  1440 0001:0002E2F0  1441 0001:0002E30F  1442 0001:0002E329  1443 0001:0002E36D
  1446 0001:0002E380  1447 0001:0002E386  1451 0001:0002E397  1452 0001:0002E3A6
  1453 0001:0002E3B6  1454 0001:0002E3C2  1455 0001:0002E3CF  1457 0001:0002E3D9
  1460 0001:0002E3DC  1461 0001:0002E3E3  1463 0001:0002E3EE  1464 0001:0002E3F7
  1466 0001:0002E401  1469 0001:0002E404  1470 0001:0002E40A  1472 0001:0002E419
  1473 0001:0002E426  1475 0001:0002E430  1478 0001:0002E434  1479 0001:0002E437
  1480 0001:0002E43E  1481 0001:0002E445  1486 0001:0002E448  1487 0001:0002E44C
  1488 0001:0002E456  1489 0001:0002E46F  1490 0001:0002E47D  1491 0001:0002E486
  1498 0001:0002E48C  1499 0001:0002E4BA  1500 0001:0002E4D9  1501 0001:0002E4E8
  1502 0001:0002E4F9  1503 0001:0002E503  1505 0001:0002E50F  1506 0001:0002E515
  1508 0001:0002E54B  1509 0001:0002E555  1510 0001:0002E577  1511 0001:0002E583
  1513 0001:0002E58F  1514 0001:0002E599  1516 0001:0002E5A5  1518 0001:0002E5B5
  1519 0001:0002E5BF  1523 0001:0002E5CB  1525 0001:0002E638  1528 0001:0002E668
  1529 0001:0002E683  1530 0001:0002E68A  1531 0001:0002E69A  1532 0001:0002E6D6
  1536 0001:0002E6DC  1537 0001:0002E6E5  1538 0001:0002E6F0  1540 0001:0002E6F5
  1541 0001:0002E707  1542 0001:0002E719  1544 0001:0002E729  1549 0001:0002E730
  1550 0001:0002E742  1551 0001:0002E74B  1552 0001:0002E757  1553 0001:0002E767
  1554 0001:0002E790  1557 0001:0002E794  1558 0001:0002E79F  1559 0001:0002E7AA
  1560 0001:0002E7C1  1563 0001:0002E7C4  1564 0001:0002E7C7  1565 0001:0002E7CE
  1566 0001:0002E7D5  1569 0001:0002E7D8  1570 0001:0002E7EE  1571 0001:0002E82D
  1574 0001:0002E834  1575 0001:0002E83A  1577 0001:0002E84B  1578 0001:0002E858
  1579 0001:0002E86A  1581 0001:0002E875  1584 0001:0002E878  1585 0001:0002E87B
  1586 0001:0002E88D  1587 0001:0002E895  1589 0001:0002E899  1590 0001:0002E8A0
  1592 0001:0002E8AC  1595 0001:0002E8B0  1596 0001:0002E8B4  1597 0001:0002E8BB
  1598 0001:0002E8C6  1601 0001:0002E8CC  1602 0001:0002E8D2  1603 0001:0002E8E0
  1605 0001:0002E8F8  1607 0001:0002E906  1610 0001:0002E922  1611 0001:0002E92E
  1617 0001:0002E940  1618 0001:0002E95B  1619 0001:0002E965  1620 0001:0002E970
  1621 0001:0002E97E  1622 0001:0002E98D  1624 0001:0002E995  1625 0001:0002E9A9
  1626 0001:0002E9B8  1627 0001:0002E9C7  1629 0001:0002E9CB  1630 0001:0002E9DF
  1634 0001:0002E9F0  1635 0001:0002E9FB  1637 0001:0002EA03  1638 0001:0002EA11
  1639 0001:0002EA1F  1641 0001:0002EA36  1642 0001:0002EA64  1646 0001:0002EA78
  1647 0001:0002EA81  1648 0001:0002EA8C  1649 0001:0002EA99  1650 0001:0002EAA1
  1653 0001:0002EAA8  1654 0001:0002EABF  1655 0001:0002EADD  1656 0001:0002EB01
  1660 0001:0002EB08  1661 0001:0002EB3E  1662 0001:0002EB49  1663 0001:0002EB60
  1664 0001:0002EB69  1665 0001:0002EB75  1666 0001:0002EB81  1668 0001:0002EB8A
  1671 0001:0002EBA0  1672 0001:0002EBA9  1673 0001:0002EBC4  1674 0001:0002EBCD
  1677 0001:0002EBD8  1679 0001:0002EBE8  1680 0001:0002EBF1  1681 0001:0002EC09
  1682 0001:0002EC16  1685 0001:0002EC2D  1688 0001:0002EC43  1689 0001:0002EC4C
  1690 0001:0002EC67  1691 0001:0002EC72  1694 0001:0002EC82  1696 0001:0002EC92
  1697 0001:0002EC9B  1698 0001:0002ECB3  1699 0001:0002ECCA  1702 0001:0002ECD7
  1705 0001:0002ECED  1706 0001:0002ECF6  1709 0001:0002ED11  1712 0001:0002ED27
  1713 0001:0002ED30  1714 0001:0002ED4E  1715 0001:0002ED57  1716 0001:0002ED60
  1717 0001:0002ED6C  1718 0001:0002ED75  1721 0001:0002ED85  1723 0001:0002ED95
  1724 0001:0002ED9E  1725 0001:0002EDB6  1726 0001:0002EDCD  1729 0001:0002EDDA
  1732 0001:0002EDF0  1733 0001:0002EDF9  1734 0001:0002EE14  1735 0001:0002EE1F
  1736 0001:0002EE28  1737 0001:0002EE35  1738 0001:0002EE41  1739 0001:0002EE4E
  1742 0001:0002EE5A  1744 0001:0002EE6A  1745 0001:0002EE73  1746 0001:0002EE8B
  1747 0001:0002EEA2  1750 0001:0002EEAF  1753 0001:0002EEC5  1754 0001:0002EECE
  1755 0001:0002EEE6  1756 0001:0002EEEF  1757 0001:0002EEFA  1758 0001:0002EF11
  1761 0001:0002EF21  1764 0001:0002EF37  1765 0001:0002EF40  1766 0001:0002EF58
  1767 0001:0002EF63  1768 0001:0002EF73  1769 0001:0002EF8A  1770 0001:0002EF94
  1773 0001:0002EF9D  1776 0001:0002EFB3  1777 0001:0002EFBC  1778 0001:0002EFD4
  1779 0001:0002EFDF  1780 0001:0002EFE6  1781 0001:0002EFFD  1784 0001:0002F007
  1787 0001:0002F01D  1788 0001:0002F026  1789 0001:0002F03E  1790 0001:0002F049
  1791 0001:0002F060  1794 0001:0002F070  1795 0001:0002F079  1796 0001:0002F0C1
  1800 0001:0002F0D8  1801 0001:0002F0EC  1804 0001:0002F0F0  1805 0001:0002F106
  1806 0001:0002F11D  1807 0001:0002F137  1808 0001:0002F153  1809 0001:0002F17B
  1816 0001:0002F180  1818 0001:0002F189  1819 0001:0002F195  1820 0001:0002F1A4
  1822 0001:0002F1A8  1823 0001:0002F1B3  1825 0001:0002F1B7  1826 0001:0002F1CA
  1830 0001:0002F1DA  1831 0001:0002F1E1  1832 0001:0002F1FB  1833 0001:0002F204
  1837 0001:0002F238  1838 0001:0002F24F  1841 0001:0002F250  1842 0001:0002F253
  1844 0001:0002F25B  1845 0001:0002F263  1846 0001:0002F273  1848 0001:0002F284
  1853 0001:0002F288  1854 0001:0002F2A8  1856 0001:0002F2B0  1857 0001:0002F2CA
  1859 0001:0002F2E8  1860 0001:0002F2FB  1861 0001:0002F311  1862 0001:0002F31F
  1866 0001:0002F36A  1867 0001:0002F374  1868 0001:0002F387  1873 0001:0002F3C2
  1876 0001:0002F3D8  1877 0001:0002F3DE  1878 0001:0002F3E7  1880 0001:0002F3F7
  1881 0001:0002F404  1884 0001:0002F408  1885 0001:0002F40B  1886 0001:0002F414
  1887 0001:0002F426  1890 0001:0002F428  1891 0001:0002F440  1894 0001:0002F48D
  1895 0001:0002F4B7  1901 0001:0002F4C0  1902 0001:0002F4E2  1903 0001:0002F4F9
  1904 0001:0002F507  1905 0001:0002F511  1906 0001:0002F520  1909 0001:0002F530
  1911 0001:0002F543  1912 0001:0002F558  1913 0001:0002F568  1914 0001:0002F594
  1915 0001:0002F5C0  1918 0001:0002F5D6  1920 0001:0002F5DA  1921 0001:0002F5EA
  1922 0001:0002F604  1924 0001:0002F620  1926 0001:0002F62A  1927 0001:0002F63A
  1929 0001:0002F640  1930 0001:0002F655  1931 0001:0002F65B  1934 0001:0002F66F
  1936 0001:0002F69F  1948 0001:0002F6A8  1949 0001:0002F6D8  1950 0001:0002F6DC
  1951 0001:0002F6E4  1952 0001:0002F6F3  1954 0001:0002F70E  1955 0001:0002F71F
  1956 0001:0002F72D  1957 0001:0002F732  1959 0001:0002F73D  1960 0001:0002F746
  1965 0001:0002F770  1966 0001:0002F77D  1967 0001:0002F783  1968 0001:0002F789
  1969 0001:0002F793  1971 0001:0002F79A  1972 0001:0002F7A4  1973 0001:0002F7B2
  1975 0001:0002F7CB  1977 0001:0002F7DB  1978 0001:0002F7E3  1980 0001:0002F7E9
  1981 0001:0002F7F6  1982 0001:0002F803  1985 0001:0002F81B  1988 0001:0002F858
  1993 0001:0002F860  1994 0001:0002F863  1995 0001:0002F870  1996 0001:0002F87F
  1999 0001:0002F884  2000 0001:0002F8A7  2001 0001:0002F8A9  2002 0001:0002F8B5
  2003 0001:0002F8CC  2004 0001:0002F8E2  2006 0001:0002F913  2007 0001:0002F960
  2009 0001:0002F998

Line numbers for mxDateUtil(mxDateUtil.pas) segment .text

    87 0001:0002FA3C    88 0001:0002FA3F    89 0001:0002FA73    95 0001:0002FA78
    96 0001:0002FA7F    97 0001:0002FA86    98 0001:0002FA99   103 0001:0002FAA0
   104 0001:0002FAA3   105 0001:0002FAC0   106 0001:0002FAC7   108 0001:0002FAD6
   109 0001:0002FADB   111 0001:0002FAE2   112 0001:0002FAFD   117 0001:0002FB04
   118 0001:0002FB07   119 0001:0002FB24   120 0001:0002FB2B   122 0001:0002FB3A
   123 0001:0002FB3F   125 0001:0002FB46   126 0001:0002FB61   132 0001:0002FB68
   133 0001:0002FB6B   134 0001:0002FB75   135 0001:0002FB8E   136 0001:0002FBA2
   137 0001:0002FBBD   142 0001:0002FBC4   143 0001:0002FBCA   144 0001:0002FBE2
   149 0001:0002FBE8   150 0001:0002FBEE   151 0001:0002FC06   156 0001:0002FC0C
   157 0001:0002FC12   158 0001:0002FC2A   164 0001:0002FC30   165 0001:0002FC42
   166 0001:0002FC56   167 0001:0002FC62   168 0001:0002FC65   169 0001:0002FC72
   170 0001:0002FC7F   171 0001:0002FC84   172 0001:0002FC87   174 0001:0002FC8A
   175 0001:0002FC8F   176 0001:0002FC92   178 0001:0002FC93   179 0001:0002FCAB
   180 0001:0002FCD3   187 0001:0002FCDC   188 0001:0002FCEB   189 0001:0002FCF6
   190 0001:0002FD02   191 0001:0002FD0E   193 0001:0002FD1A   194 0001:0002FD2E
   195 0001:0002FD42   196 0001:0002FD4D   197 0001:0002FD52   198 0001:0002FD57
   199 0001:0002FD61   200 0001:0002FD65   202 0001:0002FD68   203 0001:0002FD73
   204 0001:0002FD7D   205 0001:0002FD8D   206 0001:0002FD93   207 0001:0002FD96
   209 0001:0002FD9D   211 0001:0002FDA0   212 0001:0002FDAB   215 0001:0002FDB4
   216 0001:0002FDBA   217 0001:0002FDCA   220 0001:0002FDD0   221 0001:0002FDD6
   222 0001:0002FDEE   225 0001:0002FDF4   226 0001:0002FDFA   227 0001:0002FE12
   232 0001:0002FE18   233 0001:0002FE1E   234 0001:0002FE38   235 0001:0002FE52
   236 0001:0002FE6F   237 0001:0002FE8C   238 0001:0002FEA9   239 0001:0002FEC0
   242 0001:0002FED8   243 0001:0002FEE1   245 0001:0002FF18   250 0001:0002FF1C
   251 0001:0002FF25   252 0001:0002FF33   253 0001:0002FF47   255 0001:0002FF69
   257 0001:0002FF72   260 0001:0002FF7C   261 0001:0002FF7F   262 0001:0002FF9D
   263 0001:0002FFC6   264 0001:0002FFC8   267 0001:0002FFCC   268 0001:0002FFCF
   269 0001:0002FFE5   270 0001:0002FFEB   274 0001:0002FFF0   275 0001:0002FFFD
   277 0001:00030045   278 0001:00030063   281 0001:00030078   282 0001:0003007E
   283 0001:00030096   286 0001:0003009C   287 0001:000300A2   288 0001:000300BC
   291 0001:000300C4   292 0001:000300CA   293 0001:000300E4   296 0001:000300EC
   297 0001:000300F2   298 0001:0003010B   301 0001:00030114   302 0001:0003011A
   303 0001:00030132   309 0001:00030138   310 0001:0003013B   311 0001:00030141
   312 0001:00030145   326 0001:0003014C   327 0001:00030153   328 0001:00030157
   329 0001:0003016A   330 0001:0003016C   337 0001:00030170   338 0001:00030181
   339 0001:00030185   340 0001:0003018F   341 0001:00030194   345 0001:00030198
   346 0001:000301AE   348 0001:000301D7   349 0001:000301DE   350 0001:000301E3
   351 0001:000301EB   353 0001:000301F2   356 0001:000301FC   357 0001:00030207
   358 0001:00030209   359 0001:00030212   360 0001:00030228   361 0001:0003022A
   363 0001:0003022E   367 0001:00030234   369 0001:0003023C   370 0001:00030254
   372 0001:0003026D   378 0001:00030270   379 0001:00030275   380 0001:00030277
   382 0001:0003027E   384 0001:00030296   386 0001:0003029A   387 0001:0003029E
   388 0001:000302A2   390 0001:000302A6   395 0001:000302B2   396 0001:000302B6
   401 0001:000302BC   402 0001:000302BE   403 0001:000302C0   404 0001:000302C5
   405 0001:000302D6   406 0001:000302E5   407 0001:000302F2   409 0001:000302F7
   416 0001:000302FC   417 0001:00030325   418 0001:00030329   419 0001:0003033B
   421 0001:00030346   422 0001:00030352   424 0001:0003035B   426 0001:000303A8
   427 0001:000303BD   428 0001:000303D7   429 0001:000303E6   430 0001:000303FD
   431 0001:00030414   433 0001:00030429   436 0001:00030434   437 0001:0003043E
   438 0001:00030444   441 0001:00030456   444 0001:00030466   445 0001:00030477
   447 0001:00030480   449 0001:000304A9   450 0001:000304B8   453 0001:000304C8
   454 0001:000304DE   455 0001:000304E7   460 0001:00030552   461 0001:000305A0
   464 0001:000305B8   465 0001:000305DD   466 0001:000305E9   467 0001:000305F1
   470 0001:00030636   471 0001:0003063F   472 0001:00030665   479 0001:0003066C
   480 0001:00030699   481 0001:000306A1   482 0001:000306AC   483 0001:000306B6
   484 0001:000306CC   485 0001:000306DB   486 0001:00030703   487 0001:0003070B
   489 0001:00030711   490 0001:00030732   492 0001:00030748   493 0001:00030758
   494 0001:0003075E   495 0001:0003077E   497 0001:00030791   498 0001:000307DB
   503 0001:000307E4   504 0001:000307F7   505 0001:0003080C   506 0001:00030829
   507 0001:0003083E   508 0001:00030857   509 0001:00030860   510 0001:00030871
   511 0001:00030875   512 0001:0003087C   514 0001:00030891   520 0001:0003089C
   521 0001:000308AB   522 0001:000308AF   523 0001:000308C0   526 0001:000308C4
   527 0001:000308DA   528 0001:000308DE   529 0001:000308EC   531 0001:0003090F
   534 0001:00030918   537 0001:00030920   538 0001:0003093F   539 0001:0003094F
   541 0001:0003099D   544 0001:000309A4   545 0001:000309AD   546 0001:000309C2
   547 0001:000309DA   550 0001:000309E4   551 0001:000309F0   552 0001:00030A00
   553 0001:00030A18   556 0001:00030A20   557 0001:00030A23   558 0001:00030A27
   559 0001:00030A3F   560 0001:00030A4D   561 0001:00030A5B   565 0001:00030A69
   566 0001:00030A81   567 0001:00030A8F   568 0001:00030A9D   571 0001:00030AA9
   574 0001:00030B24   575 0001:00030B3D   576 0001:00030B41   577 0001:00030B55
   578 0001:00030B63   582 0001:00030B71   583 0001:00030B85   584 0001:00030B93
   587 0001:00030B9F   588 0001:00030BD5   596 0001:00030C24   598 0001:00030C46
   605 0001:00030C57   607 0001:00030C88   608 0001:00030CC2   611 0001:00030CCC
   612 0001:00030CE4   613 0001:00030CF2   614 0001:00030D24   615 0001:00030D4D
   627 0001:00030D90   628 0001:00030DAC   630 0001:00030DEE

Line numbers for MxPrgrss(MxPrgrss.pas) segment .text

    64 0001:00030E98    65 0001:00030EAA    67 0001:00030EB3    72 0001:00030EE6
    77 0001:00030F18    78 0001:00030F25    79 0001:00030F47    80 0001:00030F5E
    86 0001:00030F64    87 0001:00030F78    88 0001:00030F84    89 0001:00030F86
    90 0001:00030F8B    91 0001:00030FAE    92 0001:00030FD1    94 0001:00030FF7
    95 0001:00031000   100 0001:0003100C   101 0001:00031014   102 0001:0003101D
   103 0001:00031028   104 0001:00031035   105 0001:0003103B   106 0001:00031040
   112 0001:00031048   113 0001:00031050   114 0001:00031059   115 0001:00031064
   116 0001:00031071   117 0001:0003107D   119 0001:00031086   120 0001:0003108C
   128 0001:00031094   129 0001:000310B7   130 0001:000310BB   131 0001:000310C3
   132 0001:000310D5   133 0001:000310DD   134 0001:000310E8   135 0001:000310FE
   137 0001:00031114   139 0001:0003112B   140 0001:0003113A   143 0001:00031153
   144 0001:0003115F   148 0001:00031183   155 0001:0003118C   156 0001:000311A6
   157 0001:000311AB   160 0001:000311AC   161 0001:000311AF   162 0001:000311B3
   163 0001:000311CD   164 0001:000311CF   168 0001:000311D4   169 0001:000311E0
   170 0001:000311F3   174 0001:000311FC   175 0001:00031211   178 0001:00031214
   179 0001:0003121A   180 0001:00031229   183 0001:0003122C   184 0001:00031232
   185 0001:00031241   188 0001:00031244   189 0001:0003124A   190 0001:00031259
   202 0001:0003125C   206 0001:00031294

